---
triple:          'arm64-apple-darwin'
binary-path:     "/Users/hojunekim/Desktop/코테/백준/1012"
relocations:
  - { offset: 0x6BEB, size: 0x8, addend: 0x0, symName: __ZNSt3__18__fill_nB8ne180100ILb1ENS_6vectorIbNS_9allocatorIbEEEEEEvNS_14__bit_iteratorIT0_Lb0EXLi0EEEENS6_9size_typeE, symObjAddr: 0x4D88, symBinAddr: 0x100007D20, symSize: 0x164 }
  - { offset: 0x6CB0, size: 0x8, addend: 0x0, symName: __ZNSt3__18__fill_nB8ne180100ILb0ENS_6vectorIbNS_9allocatorIbEEEEEEvNS_14__bit_iteratorIT0_Lb0EXLi0EEEENS6_9size_typeE, symObjAddr: 0x4F20, symBinAddr: 0x100007EB8, symSize: 0x160 }
  - { offset: 0x7DA3, size: 0x8, addend: 0x0, symName: __ZNSt3__124__put_character_sequenceB8ne180100IcNS_11char_traitsIcEEEERNS_13basic_ostreamIT_T0_EES7_PKS4_m, symObjAddr: 0x7A9C, symBinAddr: 0x10000AA34, symSize: 0x1EC }
  - { offset: 0x9018, size: 0x8, addend: 0x0, symName: __ZNSt3__19make_pairB8ne180100IRiS1_EENS_4pairINS_18__unwrap_ref_decayIT_E4typeENS3_IT0_E4typeEEEOS4_OS7_, symObjAddr: 0x464, symBinAddr: 0x1000033FC, symSize: 0x34 }
  - { offset: 0x9072, size: 0x8, addend: 0x0, symName: __ZNSt3__1lsB8ne180100INS_11char_traitsIcEEEERNS_13basic_ostreamIcT_EES6_PKc, symObjAddr: 0xB08, symBinAddr: 0x100003AA0, symSize: 0x48 }
  - { offset: 0x90B8, size: 0x8, addend: 0x0, symName: __ZNSt3__1neB8ne180100ERKNS_16__deque_iteratorINS_4pairIiiEEPS2_RS2_PS3_lLl512EEES8_, symObjAddr: 0x136C, symBinAddr: 0x100004304, symSize: 0x34 }
  - { offset: 0x90F5, size: 0x8, addend: 0x0, symName: __ZNSt3__1eqB8ne180100ERKNS_16__deque_iteratorINS_4pairIiiEEPS2_RS2_PS3_lLl512EEES8_, symObjAddr: 0x1600, symBinAddr: 0x100004598, symSize: 0x30 }
  - { offset: 0x9132, size: 0x8, addend: 0x0, symName: __ZNSt3__119__libcpp_deallocateB8ne180100EPvmm, symObjAddr: 0x1708, symBinAddr: 0x1000046A0, symSize: 0x30 }
  - { offset: 0x917A, size: 0x8, addend: 0x0, symName: __ZNSt3__127__do_deallocate_handle_sizeB8ne180100IJEEEvPvmDpT_, symObjAddr: 0x1738, symBinAddr: 0x1000046D0, symSize: 0x28 }
  - { offset: 0x91B8, size: 0x8, addend: 0x0, symName: __ZNSt3__124__libcpp_operator_deleteB8ne180100IJPvEEEvDpT_, symObjAddr: 0x1760, symBinAddr: 0x1000046F8, symSize: 0x24 }
  - { offset: 0x91ED, size: 0x8, addend: 0x0, symName: __ZNSt3__112__to_addressB8ne180100IPNS_4pairIiiEEEEPT_S5_, symObjAddr: 0x19E4, symBinAddr: 0x10000497C, symSize: 0x14 }
  - { offset: 0x9222, size: 0x8, addend: 0x0, symName: __ZNSt3__13maxB8ne180100ImEERKT_S3_S3_, symObjAddr: 0x27AC, symBinAddr: 0x100005744, symSize: 0x2C }
  - { offset: 0x96B6, size: 0x8, addend: 0x0, symName: __ZNSt3__14swapB8ne180100IPPNS_4pairIiiEEEENS_9enable_ifIXaasr21is_move_constructibleIT_EE5valuesr18is_move_assignableIS6_EE5valueEvE4typeERS6_S9_, symObjAddr: 0x2DBC, symBinAddr: 0x100005D54, symSize: 0x3C }
  - { offset: 0x9707, size: 0x8, addend: 0x0, symName: __ZNSt3__14moveB8ne180100IPPNS_4pairIiiEES4_EET0_T_S6_S5_, symObjAddr: 0x2EA0, symBinAddr: 0x100005E38, symSize: 0x40 }
  - { offset: 0x9761, size: 0x8, addend: 0x0, symName: __ZNSt3__16__moveB8ne180100INS_17_ClassicAlgPolicyEPPNS_4pairIiiEES5_S5_EENS2_IT0_T2_EES6_T1_S7_, symObjAddr: 0x2FA8, symBinAddr: 0x100005F40, symSize: 0x44 }
  - { offset: 0x97CD, size: 0x8, addend: 0x0, symName: __ZNSt3__123__dispatch_copy_or_moveB8ne180100INS_17_ClassicAlgPolicyENS_11__move_loopIS1_EENS_14__move_trivialEPPNS_4pairIiiEES8_S8_EENS5_IT2_T4_EES9_T3_SA_, symObjAddr: 0x2FEC, symBinAddr: 0x100005F84, symSize: 0x44 }
  - { offset: 0x984B, size: 0x8, addend: 0x0, symName: __ZNSt3__121__unwrap_and_dispatchB8ne180100INS_10__overloadINS_11__move_loopINS_17_ClassicAlgPolicyEEENS_14__move_trivialEEEPPNS_4pairIiiEESA_SA_Li0EEENS7_IT0_T2_EESB_T1_SC_, symObjAddr: 0x3030, symBinAddr: 0x100005FC8, symSize: 0xB4 }
  - { offset: 0x98D9, size: 0x8, addend: 0x0, symName: __ZNSt3__114__unwrap_rangeB8ne180100IPPNS_4pairIiiEES4_EENS1_IT0_S5_EET_S7_, symObjAddr: 0x30E4, symBinAddr: 0x10000607C, symSize: 0x60 }
  - { offset: 0x9A9D, size: 0x8, addend: 0x0, symName: __ZNSt3__113__unwrap_iterB8ne180100IPPNS_4pairIiiEENS_18__unwrap_iter_implIS4_Lb1EEELi0EEEDTclsrT0_8__unwrapclsr3stdE7declvalIT_EEEES8_, symObjAddr: 0x318C, symBinAddr: 0x100006124, symSize: 0x24 }
  - { offset: 0x9AE1, size: 0x8, addend: 0x0, symName: __ZNSt3__19make_pairB8ne180100IPPNS_4pairIiiEES4_EENS1_INS_18__unwrap_ref_decayIT_E4typeENS5_IT0_E4typeEEEOS6_OS9_, symObjAddr: 0x31B0, symBinAddr: 0x100006148, symSize: 0x38 }
  - { offset: 0x9B30, size: 0x8, addend: 0x0, symName: __ZNSt3__114__rewrap_rangeB8ne180100IPPNS_4pairIiiEES4_EET_S5_T0_, symObjAddr: 0x31E8, symBinAddr: 0x100006180, symSize: 0x2C }
  - { offset: 0x9B7C, size: 0x8, addend: 0x0, symName: __ZNSt3__113__rewrap_iterB8ne180100IPPNS_4pairIiiEES4_NS_18__unwrap_iter_implIS4_Lb1EEEEET_S7_T0_, symObjAddr: 0x3214, symBinAddr: 0x1000061AC, symSize: 0x3C }
  - { offset: 0x9BD1, size: 0x8, addend: 0x0, symName: __ZNSt3__119__copy_trivial_implB8ne180100IPNS_4pairIiiEES3_EENS1_IPT_PT0_EES5_S5_S7_, symObjAddr: 0x3250, symBinAddr: 0x1000061E8, symSize: 0x80 }
  - { offset: 0x9C39, size: 0x8, addend: 0x0, symName: __ZNSt3__119__constexpr_memmoveB8ne180100IPNS_4pairIiiEES3_Li0EEEPT_S5_PT0_NS_15__element_countE, symObjAddr: 0x32D0, symBinAddr: 0x100006268, symSize: 0x64 }
  - { offset: 0x9CA7, size: 0x8, addend: 0x0, symName: __ZNSt3__19make_pairB8ne180100IRPPNS_4pairIiiEES4_EENS1_INS_18__unwrap_ref_decayIT_E4typeENS6_IT0_E4typeEEEOS7_OSA_, symObjAddr: 0x3334, symBinAddr: 0x1000062CC, symSize: 0x38 }
  - { offset: 0x9D49, size: 0x8, addend: 0x0, symName: __ZNSt3__18distanceB8ne180100INS_13move_iteratorIPPNS_4pairIiiEEEEEENS_15iterator_traitsIT_E15difference_typeES8_S8_, symObjAddr: 0x359C, symBinAddr: 0x100006534, symSize: 0x3C }
  - { offset: 0x9D8C, size: 0x8, addend: 0x0, symName: __ZNSt3__110__distanceB8ne180100INS_13move_iteratorIPPNS_4pairIiiEEEEEENS_15iterator_traitsIT_E15difference_typeES8_S8_NS_26random_access_iterator_tagE, symObjAddr: 0x37A0, symBinAddr: 0x100006738, symSize: 0x30 }
  - { offset: 0x9DD9, size: 0x8, addend: 0x0, symName: __ZNSt3__1miB8ne180100IPPNS_4pairIiiEES4_EEDTmicldtfp_4baseEcldtfp0_4baseEERKNS_13move_iteratorIT_EERKNS6_IT0_EE, symObjAddr: 0x37D0, symBinAddr: 0x100006768, symSize: 0x48 }
  - { offset: 0x9E28, size: 0x8, addend: 0x0, symName: __ZNSt3__117__libcpp_allocateB8ne180100Emm, symObjAddr: 0x3928, symBinAddr: 0x1000068C0, symSize: 0x28 }
  - { offset: 0x9E65, size: 0x8, addend: 0x0, symName: __ZNSt3__121__libcpp_operator_newB8ne180100IJmEEEPvDpT_, symObjAddr: 0x3964, symBinAddr: 0x1000068FC, symSize: 0x24 }
  - { offset: 0x9E9E, size: 0x8, addend: 0x0, symName: __ZNSt3__113move_backwardB8ne180100IPPNS_4pairIiiEES4_EET0_T_S6_S5_, symObjAddr: 0x3988, symBinAddr: 0x100006920, symSize: 0x40 }
  - { offset: 0x9EF8, size: 0x8, addend: 0x0, symName: __ZNSt3__115__move_backwardB8ne180100INS_17_ClassicAlgPolicyEPPNS_4pairIiiEES5_S5_EENS2_IT0_T2_EES6_T1_S7_, symObjAddr: 0x39C8, symBinAddr: 0x100006960, symSize: 0x44 }
  - { offset: 0x9F64, size: 0x8, addend: 0x0, symName: __ZNSt3__123__dispatch_copy_or_moveB8ne180100INS_17_ClassicAlgPolicyENS_20__move_backward_loopIS1_EENS_23__move_backward_trivialEPPNS_4pairIiiEES8_S8_EENS5_IT2_T4_EES9_T3_SA_, symObjAddr: 0x3A0C, symBinAddr: 0x1000069A4, symSize: 0x44 }
  - { offset: 0x9FE2, size: 0x8, addend: 0x0, symName: __ZNSt3__121__unwrap_and_dispatchB8ne180100INS_10__overloadINS_20__move_backward_loopINS_17_ClassicAlgPolicyEEENS_23__move_backward_trivialEEEPPNS_4pairIiiEESA_SA_Li0EEENS7_IT0_T2_EESB_T1_SC_, symObjAddr: 0x3A50, symBinAddr: 0x1000069E8, symSize: 0xB4 }
  - { offset: 0xA0B6, size: 0x8, addend: 0x0, symName: __ZNSt3__128__copy_backward_trivial_implB8ne180100IPNS_4pairIiiEES3_EENS1_IPT_PT0_EES5_S5_S7_, symObjAddr: 0x3B4C, symBinAddr: 0x100006AE4, symSize: 0x90 }
  - { offset: 0xA11E, size: 0x8, addend: 0x0, symName: __ZNSt3__19make_pairB8ne180100IRPPNS_4pairIiiEES5_EENS1_INS_18__unwrap_ref_decayIT_E4typeENS6_IT0_E4typeEEEOS7_OSA_, symObjAddr: 0x3BDC, symBinAddr: 0x100006B74, symSize: 0x38 }
  - { offset: 0xA16D, size: 0x8, addend: 0x0, symName: __ZNSt3__13maxB8ne180100ImNS_6__lessIvvEEEERKT_S5_S5_T0_, symObjAddr: 0x3C84, symBinAddr: 0x100006C1C, symSize: 0x54 }
  - { offset: 0xA20C, size: 0x8, addend: 0x0, symName: __ZNSt3__119__allocate_at_leastB8ne180100INS_9allocatorIPNS_4pairIiiEEEEEENS_19__allocation_resultINS_16allocator_traitsIT_E7pointerEEERS8_m, symObjAddr: 0x3E1C, symBinAddr: 0x100006DB4, symSize: 0x40 }
  - { offset: 0xA24F, size: 0x8, addend: 0x0, symName: __ZNSt3__112__to_addressB8ne180100INS_4pairIiiEEEEPT_S4_, symObjAddr: 0x448C, symBinAddr: 0x100007424, symSize: 0x14 }
  - { offset: 0xA284, size: 0x8, addend: 0x0, symName: __ZNSt3__119__allocate_at_leastB8ne180100INS_9allocatorImEEEENS_19__allocation_resultINS_16allocator_traitsIT_E7pointerEEERS5_m, symObjAddr: 0x4980, symBinAddr: 0x100007918, symSize: 0x40 }
  - { offset: 0xA4C9, size: 0x8, addend: 0x0, symName: __ZNSt3__120__throw_length_errorB8ne180100EPKc, symObjAddr: 0x4B00, symBinAddr: 0x100007A98, symSize: 0x64 }
  - { offset: 0xA4F1, size: 0x8, addend: 0x0, symName: __ZNSt3__16fill_nB8ne180100INS_6vectorIbNS_9allocatorIbEEEEEEvNS_14__bit_iteratorIT_Lb0EXLi0EEEENS6_9size_typeEb, symObjAddr: 0x4C90, symBinAddr: 0x100007C28, symSize: 0x94 }
  - { offset: 0xA53F, size: 0x8, addend: 0x0, symName: __ZNSt3__13minB8ne180100ImEERKT_S3_S3_, symObjAddr: 0x5080, symBinAddr: 0x100008018, symSize: 0x2C }
  - { offset: 0xA582, size: 0x8, addend: 0x0, symName: __ZNSt3__16fill_nB8ne180100IPmmmEET_S2_T0_RKT1_, symObjAddr: 0x50AC, symBinAddr: 0x100008044, symSize: 0x44 }
  - { offset: 0xA5E5, size: 0x8, addend: 0x0, symName: __ZNSt3__112__to_addressB8ne180100ImEEPT_S2_, symObjAddr: 0x50F0, symBinAddr: 0x100008088, symSize: 0x14 }
  - { offset: 0xA61A, size: 0x8, addend: 0x0, symName: __ZNSt3__13minB8ne180100ImNS_6__lessIvvEEEERKT_S5_S5_T0_, symObjAddr: 0x5104, symBinAddr: 0x10000809C, symSize: 0x54 }
  - { offset: 0xA674, size: 0x8, addend: 0x0, symName: __ZNSt3__18__fill_nB8ne180100IPmmmEET_S2_T0_RKT1_, symObjAddr: 0x5158, symBinAddr: 0x1000080F0, symSize: 0x64 }
  - { offset: 0xA6D7, size: 0x8, addend: 0x0, symName: __ZNSt3__121__convert_to_integralB8ne180100Em, symObjAddr: 0x51BC, symBinAddr: 0x100008154, symSize: 0x14 }
  - { offset: 0xA703, size: 0x8, addend: 0x0, symName: __ZNSt3__122__make_exception_guardB8ne180100INS_6vectorINS1_IbNS_9allocatorIbEEEENS2_IS4_EEE16__destroy_vectorEEENS_28__exception_guard_exceptionsIT_EES9_, symObjAddr: 0x5508, symBinAddr: 0x1000084A0, symSize: 0x40 }
  - { offset: 0xA738, size: 0x8, addend: 0x0, symName: __ZNSt3__119__allocate_at_leastB8ne180100INS_9allocatorINS_6vectorIbNS1_IbEEEEEEEENS_19__allocation_resultINS_16allocator_traitsIT_E7pointerEEERS8_m, symObjAddr: 0x5904, symBinAddr: 0x10000889C, symSize: 0x40 }
  - { offset: 0xA97C, size: 0x8, addend: 0x0, symName: __ZNSt3__112__to_addressB8ne180100INS_6vectorIbNS_9allocatorIbEEEEEEPT_S6_, symObjAddr: 0x5B9C, symBinAddr: 0x100008B34, symSize: 0x14 }
  - { offset: 0xA9B1, size: 0x8, addend: 0x0, symName: __ZNSt3__16__copyB8ne180100INS_17_ClassicAlgPolicyENS_14__bit_iteratorINS_6vectorIbNS_9allocatorIbEEEELb1ELm0EEES7_NS2_IS6_Lb0ELm0EEEEENS_4pairIT0_T2_EESA_T1_SB_, symObjAddr: 0x5FBC, symBinAddr: 0x100008F54, symSize: 0x7C }
  - { offset: 0xAA1E, size: 0x8, addend: 0x0, symName: __ZNSt3__123__dispatch_copy_or_moveB8ne180100INS_17_ClassicAlgPolicyENS_11__copy_loopIS1_EENS_14__copy_trivialENS_14__bit_iteratorINS_6vectorIbNS_9allocatorIbEEEELb1ELm0EEESA_NS5_IS9_Lb0ELm0EEEEENS_4pairIT2_T4_EESD_T3_SE_, symObjAddr: 0x6038, symBinAddr: 0x100008FD0, symSize: 0x7C }
  - { offset: 0xAA9D, size: 0x8, addend: 0x0, symName: __ZNSt3__121__unwrap_and_dispatchB8ne180100INS_10__overloadINS_11__copy_loopINS_17_ClassicAlgPolicyEEENS_14__copy_trivialEEENS_14__bit_iteratorINS_6vectorIbNS_9allocatorIbEEEELb1ELm0EEESC_NS7_ISB_Lb0ELm0EEELi0EEENS_4pairIT0_T2_EESF_T1_SG_, symObjAddr: 0x60B4, symBinAddr: 0x10000904C, symSize: 0x150 }
  - { offset: 0xAB2E, size: 0x8, addend: 0x0, symName: __ZNSt3__114__unwrap_rangeB8ne180100INS_14__bit_iteratorINS_6vectorIbNS_9allocatorIbEEEELb1ELm0EEES6_EENS_4pairIT0_S8_EET_SA_, symObjAddr: 0x6204, symBinAddr: 0x10000919C, symSize: 0x84 }
  - { offset: 0xACE8, size: 0x8, addend: 0x0, symName: __ZNSt3__113__unwrap_iterB8ne180100INS_14__bit_iteratorINS_6vectorIbNS_9allocatorIbEEEELb0ELm0EEENS_18__unwrap_iter_implIS6_Lb0EEELi0EEEDTclsrT0_8__unwrapclsr3stdE7declvalIT_EEEESA_, symObjAddr: 0x634C, symBinAddr: 0x1000092E4, symSize: 0x44 }
  - { offset: 0xAD2D, size: 0x8, addend: 0x0, symName: __ZNSt3__19make_pairB8ne180100INS_14__bit_iteratorINS_6vectorIbNS_9allocatorIbEEEELb1ELm0EEENS1_IS5_Lb0ELm0EEEEENS_4pairINS_18__unwrap_ref_decayIT_E4typeENS9_IT0_E4typeEEEOSA_OSD_, symObjAddr: 0x6390, symBinAddr: 0x100009328, symSize: 0x40 }
  - { offset: 0xAD7C, size: 0x8, addend: 0x0, symName: __ZNSt3__114__rewrap_rangeB8ne180100INS_14__bit_iteratorINS_6vectorIbNS_9allocatorIbEEEELb1ELm0EEES6_EET_S7_T0_, symObjAddr: 0x63D0, symBinAddr: 0x100009368, symSize: 0x5C }
  - { offset: 0xADC8, size: 0x8, addend: 0x0, symName: __ZNSt3__113__rewrap_iterB8ne180100INS_14__bit_iteratorINS_6vectorIbNS_9allocatorIbEEEELb0ELm0EEES6_NS_18__unwrap_iter_implIS6_Lb0EEEEET_S9_T0_, symObjAddr: 0x642C, symBinAddr: 0x1000093C4, symSize: 0x74 }
  - { offset: 0xAE1F, size: 0x8, addend: 0x0, symName: __ZNSt3__19make_pairB8ne180100INS_14__bit_iteratorINS_6vectorIbNS_9allocatorIbEEEELb1ELm0EEES6_EENS_4pairINS_18__unwrap_ref_decayIT_E4typeENS8_IT0_E4typeEEEOS9_OSC_, symObjAddr: 0x64A0, symBinAddr: 0x100009438, symSize: 0x38 }
  - { offset: 0xAE6E, size: 0x8, addend: 0x0, symName: __ZNSt3__113__unwrap_iterB8ne180100INS_14__bit_iteratorINS_6vectorIbNS_9allocatorIbEEEELb1ELm0EEENS_18__unwrap_iter_implIS6_Lb0EEELi0EEEDTclsrT0_8__unwrapclsr3stdE7declvalIT_EEEESA_, symObjAddr: 0x64D8, symBinAddr: 0x100009470, symSize: 0x44 }
  - { offset: 0xAFCE, size: 0x8, addend: 0x0, symName: __ZNSt3__1neB8ne180100ERKNS_14__bit_iteratorINS_6vectorIbNS_9allocatorIbEEEELb1ELm0EEES7_, symObjAddr: 0x65B0, symBinAddr: 0x100009548, symSize: 0x34 }
  - { offset: 0xB00B, size: 0x8, addend: 0x0, symName: __ZNSt3__1eqB8ne180100ERKNS_14__bit_iteratorINS_6vectorIbNS_9allocatorIbEEEELb1ELm0EEES7_, symObjAddr: 0x6750, symBinAddr: 0x1000096E8, symSize: 0x64 }
  - { offset: 0xB090, size: 0x8, addend: 0x0, symName: __ZNSt3__113__rewrap_iterB8ne180100INS_14__bit_iteratorINS_6vectorIbNS_9allocatorIbEEEELb1ELm0EEES6_NS_18__unwrap_iter_implIS6_Lb0EEEEET_S9_T0_, symObjAddr: 0x68D8, symBinAddr: 0x100009870, symSize: 0x74 }
  - { offset: 0xB0E5, size: 0x8, addend: 0x0, symName: __ZNSt3__16__copyB8ne180100INS_17_ClassicAlgPolicyENS_14__bit_iteratorINS_6vectorIbNS_9allocatorIbEEEELb0ELm0EEES7_S7_EENS_4pairIT0_T2_EES9_T1_SA_, symObjAddr: 0x743C, symBinAddr: 0x10000A3D4, symSize: 0x88 }
  - { offset: 0xB154, size: 0x8, addend: 0x0, symName: __ZNSt3__123__dispatch_copy_or_moveB8ne180100INS_17_ClassicAlgPolicyENS_11__copy_loopIS1_EENS_14__copy_trivialENS_14__bit_iteratorINS_6vectorIbNS_9allocatorIbEEEELb0ELm0EEESA_SA_EENS_4pairIT2_T4_EESC_T3_SD_, symObjAddr: 0x74C4, symBinAddr: 0x10000A45C, symSize: 0x88 }
  - { offset: 0xB1D5, size: 0x8, addend: 0x0, symName: __ZNSt3__121__unwrap_and_dispatchB8ne180100INS_10__overloadINS_11__copy_loopINS_17_ClassicAlgPolicyEEENS_14__copy_trivialEEENS_14__bit_iteratorINS_6vectorIbNS_9allocatorIbEEEELb0ELm0EEESC_SC_Li0EEENS_4pairIT0_T2_EESE_T1_SF_, symObjAddr: 0x754C, symBinAddr: 0x10000A4E4, symSize: 0x15C }
  - { offset: 0xB268, size: 0x8, addend: 0x0, symName: __ZNSt3__114__unwrap_rangeB8ne180100INS_14__bit_iteratorINS_6vectorIbNS_9allocatorIbEEEELb0ELm0EEES6_EENS_4pairIT0_S8_EET_SA_, symObjAddr: 0x76A8, symBinAddr: 0x10000A640, symSize: 0x8C }
  - { offset: 0xB38A, size: 0x8, addend: 0x0, symName: __ZNSt3__19make_pairB8ne180100INS_14__bit_iteratorINS_6vectorIbNS_9allocatorIbEEEELb0ELm0EEES6_EENS_4pairINS_18__unwrap_ref_decayIT_E4typeENS8_IT0_E4typeEEEOS9_OSC_, symObjAddr: 0x77EC, symBinAddr: 0x10000A784, symSize: 0x40 }
  - { offset: 0xB3D9, size: 0x8, addend: 0x0, symName: __ZNSt3__114__rewrap_rangeB8ne180100INS_14__bit_iteratorINS_6vectorIbNS_9allocatorIbEEEELb0ELm0EEES6_EET_S7_T0_, symObjAddr: 0x782C, symBinAddr: 0x10000A7C4, symSize: 0x6C }
  - { offset: 0xB427, size: 0x8, addend: 0x0, symName: __ZNSt3__1neB8ne180100ERKNS_14__bit_iteratorINS_6vectorIbNS_9allocatorIbEEEELb0ELm0EEES7_, symObjAddr: 0x7898, symBinAddr: 0x10000A830, symSize: 0x34 }
  - { offset: 0xB464, size: 0x8, addend: 0x0, symName: __ZNSt3__1eqB8ne180100ERKNS_14__bit_iteratorINS_6vectorIbNS_9allocatorIbEEEELb0ELm0EEES7_, symObjAddr: 0x790C, symBinAddr: 0x10000A8A4, symSize: 0x64 }
  - { offset: 0xB4A1, size: 0x8, addend: 0x0, symName: __ZNSt3__14swapB8ne180100IPmEENS_9enable_ifIXaasr21is_move_constructibleIT_EE5valuesr18is_move_assignableIS3_EE5valueEvE4typeERS3_S6_, symObjAddr: 0x79F4, symBinAddr: 0x10000A98C, symSize: 0x3C }
  - { offset: 0xB4F2, size: 0x8, addend: 0x0, symName: __ZNSt3__14swapB8ne180100ImEENS_9enable_ifIXaasr21is_move_constructibleIT_EE5valuesr18is_move_assignableIS2_EE5valueEvE4typeERS2_S5_, symObjAddr: 0x7A30, symBinAddr: 0x10000A9C8, symSize: 0x3C }
  - { offset: 0xB543, size: 0x8, addend: 0x0, symName: __ZNSt3__116__swap_allocatorB8ne180100INS_9allocatorImEEEEvRT_S4_NS_17integral_constantIbLb0EEE, symObjAddr: 0x7A6C, symBinAddr: 0x10000AA04, symSize: 0x14 }
  - { offset: 0xB584, size: 0x8, addend: 0x0, symName: __ZNSt3__116__pad_and_outputB8ne180100IcNS_11char_traitsIcEEEENS_19ostreambuf_iteratorIT_T0_EES6_PKS4_S8_S8_RNS_8ios_baseES4_, symObjAddr: 0x7CD8, symBinAddr: 0x10000AC70, symSize: 0x240 }
  - { offset: 0xB653, size: 0x8, addend: 0x0, symName: __ZNSt3__112__to_addressB8ne180100IKcEEPT_S3_, symObjAddr: 0x8240, symBinAddr: 0x10000B1D8, symSize: 0x14 }
  - { offset: 0xB6BB, size: 0x8, addend: 0x0, symName: __ZNSt3__19use_facetB8ne180100INS_5ctypeIcEEEERKT_RKNS_6localeE, symObjAddr: 0x84C0, symBinAddr: 0x10000B458, symSize: 0x2C }
  - { offset: 0xBB88, size: 0x8, addend: 0x0, symName: __ZNSt3__118__constexpr_strlenB8ne180100EPKc, symObjAddr: 0x8558, symBinAddr: 0x10000B4F0, symSize: 0x24 }
  - { offset: 0xCC39, size: 0x8, addend: 0x0, symName: __ZSt28__throw_bad_array_new_lengthB8ne180100v, symObjAddr: 0x38F4, symBinAddr: 0x10000688C, symSize: 0x34 }
  - { offset: 0xD58F, size: 0x8, addend: 0x0, symName: __Z5solveiiRNSt3__16vectorINS0_IbNS_9allocatorIbEEEENS1_IS3_EEEEiiRi, symObjAddr: 0x0, symBinAddr: 0x100002F98, symSize: 0x2F8 }
  - { offset: 0xD694, size: 0x8, addend: 0x0, symName: __ZNSt3__15dequeINS_4pairIiiEENS_9allocatorIS2_EEEC1B8ne180100Ev, symObjAddr: 0x2F8, symBinAddr: 0x100003290, symSize: 0x2C }
  - { offset: 0xD6BD, size: 0x8, addend: 0x0, symName: __ZNSt3__16vectorINS0_IbNS_9allocatorIbEEEENS1_IS3_EEEixB8ne180100Em, symObjAddr: 0x324, symBinAddr: 0x1000032BC, symSize: 0x2C }
  - { offset: 0xD6F3, size: 0x8, addend: 0x0, symName: __ZNSt3__16vectorIbNS_9allocatorIbEEEixB8ne180100Em, symObjAddr: 0x350, symBinAddr: 0x1000032E8, symSize: 0x3C }
  - { offset: 0xD727, size: 0x8, addend: 0x0, symName: __ZNKSt3__115__bit_referenceINS_6vectorIbNS_9allocatorIbEEEELb1EEcvbB8ne180100Ev, symObjAddr: 0x38C, symBinAddr: 0x100003324, symSize: 0x2C }
  - { offset: 0xD74C, size: 0x8, addend: 0x0, symName: __ZNSt3__15dequeINS_4pairIiiEENS_9allocatorIS2_EEE9push_backEOS2_, symObjAddr: 0x3B8, symBinAddr: 0x100003350, symSize: 0xAC }
  - { offset: 0xD791, size: 0x8, addend: 0x0, symName: __ZNSt3__115__bit_referenceINS_6vectorIbNS_9allocatorIbEEEELb1EEaSB8ne180100Eb, symObjAddr: 0x498, symBinAddr: 0x100003430, symSize: 0x6C }
  - { offset: 0xD7C4, size: 0x8, addend: 0x0, symName: __ZNKSt3__15dequeINS_4pairIiiEENS_9allocatorIS2_EEE5emptyB8ne180100Ev, symObjAddr: 0x504, symBinAddr: 0x10000349C, symSize: 0x30 }
  - { offset: 0xD7E9, size: 0x8, addend: 0x0, symName: __ZNSt3__15dequeINS_4pairIiiEENS_9allocatorIS2_EEE5frontEv, symObjAddr: 0x534, symBinAddr: 0x1000034CC, symSize: 0x50 }
  - { offset: 0xD810, size: 0x8, addend: 0x0, symName: __ZNSt3__15dequeINS_4pairIiiEENS_9allocatorIS2_EEE9pop_frontEv, symObjAddr: 0x584, symBinAddr: 0x10000351C, symSize: 0xD4 }
  - { offset: 0xD863, size: 0x8, addend: 0x0, symName: __ZNSt3__15dequeINS_4pairIiiEENS_9allocatorIS2_EEED1B8ne180100Ev, symObjAddr: 0x658, symBinAddr: 0x1000035F0, symSize: 0x2C }
  - { offset: 0xD88C, size: 0x8, addend: 0x0, symName: _main, symObjAddr: 0x684, symBinAddr: 0x10000361C, symSize: 0x318 }
  - { offset: 0xD9AF, size: 0x8, addend: 0x0, symName: __ZNSt3__19basic_iosIcNS_11char_traitsIcEEE3tieB8ne180100EPNS_13basic_ostreamIcS2_EE, symObjAddr: 0x99C, symBinAddr: 0x100003934, symSize: 0x2C }
  - { offset: 0xD9F4, size: 0x8, addend: 0x0, symName: __ZNSt3__16vectorIbNS_9allocatorIbEEEC1Em, symObjAddr: 0x9C8, symBinAddr: 0x100003960, symSize: 0x34 }
  - { offset: 0xDA2E, size: 0x8, addend: 0x0, symName: __ZNSt3__16vectorINS0_IbNS_9allocatorIbEEEENS1_IS3_EEEC1EmRKS3_, symObjAddr: 0x9FC, symBinAddr: 0x100003994, symSize: 0x3C }
  - { offset: 0xDA76, size: 0x8, addend: 0x0, symName: __ZNSt3__16vectorIbNS_9allocatorIbEEED1B8ne180100Ev, symObjAddr: 0xA38, symBinAddr: 0x1000039D0, symSize: 0x2C }
  - { offset: 0xDA9F, size: 0x8, addend: 0x0, symName: __ZNSt3__16vectorIbNS_9allocatorIbEEE9push_backERKb, symObjAddr: 0xA64, symBinAddr: 0x1000039FC, symSize: 0xA4 }
  - { offset: 0xDAD4, size: 0x8, addend: 0x0, symName: __ZNSt3__16vectorINS0_IbNS_9allocatorIbEEEENS1_IS3_EEED1B8ne180100Ev, symObjAddr: 0xB50, symBinAddr: 0x100003AE8, symSize: 0x2C }
  - { offset: 0xDB01, size: 0x8, addend: 0x0, symName: __ZNSt3__14pairIiiEC1B8ne180100IRiS3_Li0EEEOT_OT0_, symObjAddr: 0xB7C, symBinAddr: 0x100003B14, symSize: 0x3C }
  - { offset: 0xDB5E, size: 0x8, addend: 0x0, symName: __ZNSt3__14pairIiiEC2B8ne180100IRiS3_Li0EEEOT_OT0_, symObjAddr: 0xBB8, symBinAddr: 0x100003B50, symSize: 0x34 }
  - { offset: 0xDBBA, size: 0x8, addend: 0x0, symName: __ZNSt3__15dequeINS_4pairIiiEENS_9allocatorIS2_EEEC2B8ne180100Ev, symObjAddr: 0xBEC, symBinAddr: 0x100003B84, symSize: 0x5C }
  - { offset: 0xDBE2, size: 0x8, addend: 0x0, symName: __ZNSt3__114__split_bufferIPNS_4pairIiiEENS_9allocatorIS3_EEEC1B8ne180100Ev, symObjAddr: 0xC48, symBinAddr: 0x100003BE0, symSize: 0x2C }
  - { offset: 0xDC14, size: 0x8, addend: 0x0, symName: __ZNSt3__117__compressed_pairImNS_9allocatorINS_4pairIiiEEEEEC1B8ne180100IiNS_18__default_init_tagEEEOT_OT0_, symObjAddr: 0xC74, symBinAddr: 0x100003C0C, symSize: 0x3C }
  - { offset: 0xDC6B, size: 0x8, addend: 0x0, symName: __ZNKSt3__15dequeINS_4pairIiiEENS_9allocatorIS2_EEE14__annotate_newB8ne180100Em, symObjAddr: 0xCC0, symBinAddr: 0x100003C58, symSize: 0x14 }
  - { offset: 0xDC9E, size: 0x8, addend: 0x0, symName: __ZNSt3__114__split_bufferIPNS_4pairIiiEENS_9allocatorIS3_EEEC2B8ne180100Ev, symObjAddr: 0xCD4, symBinAddr: 0x100003C6C, symSize: 0x50 }
  - { offset: 0xDCD1, size: 0x8, addend: 0x0, symName: __ZNSt3__117__compressed_pairIPPNS_4pairIiiEENS_9allocatorIS3_EEEC1B8ne180100IDnNS_18__default_init_tagEEEOT_OT0_, symObjAddr: 0xD24, symBinAddr: 0x100003CBC, symSize: 0x3C }
  - { offset: 0xDD27, size: 0x8, addend: 0x0, symName: __ZNSt3__117__compressed_pairIPPNS_4pairIiiEENS_9allocatorIS3_EEEC2B8ne180100IDnNS_18__default_init_tagEEEOT_OT0_, symObjAddr: 0xD60, symBinAddr: 0x100003CF8, symSize: 0x40 }
  - { offset: 0xDD7E, size: 0x8, addend: 0x0, symName: __ZNSt3__122__compressed_pair_elemIPPNS_4pairIiiEELi0ELb0EEC2B8ne180100IDnvEEOT_, symObjAddr: 0xDA0, symBinAddr: 0x100003D38, symSize: 0x1C }
  - { offset: 0xDDBE, size: 0x8, addend: 0x0, symName: __ZNSt3__122__compressed_pair_elemINS_9allocatorIPNS_4pairIiiEEEELi1ELb1EEC2B8ne180100ENS_18__default_init_tagE, symObjAddr: 0xDBC, symBinAddr: 0x100003D54, symSize: 0x2C }
  - { offset: 0xDDF0, size: 0x8, addend: 0x0, symName: __ZNSt3__19allocatorIPNS_4pairIiiEEEC2B8ne180100Ev, symObjAddr: 0xDE8, symBinAddr: 0x100003D80, symSize: 0x2C }
  - { offset: 0xDE19, size: 0x8, addend: 0x0, symName: __ZNSt3__116__non_trivial_ifILb1ENS_9allocatorIPNS_4pairIiiEEEEEC2B8ne180100Ev, symObjAddr: 0xE14, symBinAddr: 0x100003DAC, symSize: 0x14 }
  - { offset: 0xDE41, size: 0x8, addend: 0x0, symName: __ZNSt3__117__compressed_pairImNS_9allocatorINS_4pairIiiEEEEEC2B8ne180100IiNS_18__default_init_tagEEEOT_OT0_, symObjAddr: 0xE28, symBinAddr: 0x100003DC0, symSize: 0x40 }
  - { offset: 0xDE98, size: 0x8, addend: 0x0, symName: __ZNSt3__122__compressed_pair_elemImLi0ELb0EEC2B8ne180100IivEEOT_, symObjAddr: 0xE68, symBinAddr: 0x100003E00, symSize: 0x24 }
  - { offset: 0xDED8, size: 0x8, addend: 0x0, symName: __ZNSt3__122__compressed_pair_elemINS_9allocatorINS_4pairIiiEEEELi1ELb1EEC2B8ne180100ENS_18__default_init_tagE, symObjAddr: 0xE8C, symBinAddr: 0x100003E24, symSize: 0x2C }
  - { offset: 0xDF0A, size: 0x8, addend: 0x0, symName: __ZNSt3__19allocatorINS_4pairIiiEEEC2B8ne180100Ev, symObjAddr: 0xEB8, symBinAddr: 0x100003E50, symSize: 0x2C }
  - { offset: 0xDF33, size: 0x8, addend: 0x0, symName: __ZNSt3__116__non_trivial_ifILb1ENS_9allocatorINS_4pairIiiEEEEEC2B8ne180100Ev, symObjAddr: 0xEE4, symBinAddr: 0x100003E7C, symSize: 0x14 }
  - { offset: 0xDF5B, size: 0x8, addend: 0x0, symName: __ZNSt3__15dequeINS_4pairIiiEENS_9allocatorIS2_EEED2B8ne180100Ev, symObjAddr: 0xEF8, symBinAddr: 0x100003E90, symSize: 0xA4 }
  - { offset: 0xDFB0, size: 0x8, addend: 0x0, symName: __ZNSt3__15dequeINS_4pairIiiEENS_9allocatorIS2_EEE5clearEv, symObjAddr: 0xF9C, symBinAddr: 0x100003F34, symSize: 0x194 }
  - { offset: 0xE00A, size: 0x8, addend: 0x0, symName: __ZNKSt3__15dequeINS_4pairIiiEENS_9allocatorIS2_EEE17__annotate_deleteB8ne180100Ev, symObjAddr: 0x1130, symBinAddr: 0x1000040C8, symSize: 0x10 }
  - { offset: 0xE02F, size: 0x8, addend: 0x0, symName: __ZNSt3__114__split_bufferIPNS_4pairIiiEENS_9allocatorIS3_EEE5beginB8ne180100Ev, symObjAddr: 0x1140, symBinAddr: 0x1000040D8, symSize: 0x18 }
  - { offset: 0xE054, size: 0x8, addend: 0x0, symName: __ZNSt3__114__split_bufferIPNS_4pairIiiEENS_9allocatorIS3_EEE3endB8ne180100Ev, symObjAddr: 0x1158, symBinAddr: 0x1000040F0, symSize: 0x18 }
  - { offset: 0xE079, size: 0x8, addend: 0x0, symName: __ZNSt3__116allocator_traitsINS_9allocatorINS_4pairIiiEEEEE10deallocateB8ne180100ERS4_PS3_m, symObjAddr: 0x1170, symBinAddr: 0x100004108, symSize: 0x34 }
  - { offset: 0xE0BB, size: 0x8, addend: 0x0, symName: __ZNSt3__15dequeINS_4pairIiiEENS_9allocatorIS2_EEE7__allocB8ne180100Ev, symObjAddr: 0x11A4, symBinAddr: 0x10000413C, symSize: 0x28 }
  - { offset: 0xE0E0, size: 0x8, addend: 0x0, symName: __ZNSt3__114__split_bufferIPNS_4pairIiiEENS_9allocatorIS3_EEED1Ev, symObjAddr: 0x11CC, symBinAddr: 0x100004164, symSize: 0x2C }
  - { offset: 0xE10B, size: 0x8, addend: 0x0, symName: __ZNSt3__15dequeINS_4pairIiiEENS_9allocatorIS2_EEE5beginB8ne180100Ev, symObjAddr: 0x11F8, symBinAddr: 0x100004190, symSize: 0xB8 }
  - { offset: 0xE13F, size: 0x8, addend: 0x0, symName: __ZNSt3__15dequeINS_4pairIiiEENS_9allocatorIS2_EEE3endB8ne180100Ev, symObjAddr: 0x12B0, symBinAddr: 0x100004248, symSize: 0xBC }
  - { offset: 0xE182, size: 0x8, addend: 0x0, symName: __ZNSt3__116allocator_traitsINS_9allocatorINS_4pairIiiEEEEE7destroyB8ne180100IS3_vEEvRS4_PT_, symObjAddr: 0x13A0, symBinAddr: 0x100004338, symSize: 0x2C }
  - { offset: 0xE1BF, size: 0x8, addend: 0x0, symName: __ZNKSt3__116__deque_iteratorINS_4pairIiiEEPS2_RS2_PS3_lLl512EEdeB8ne180100Ev, symObjAddr: 0x13CC, symBinAddr: 0x100004364, symSize: 0x18 }
  - { offset: 0xE1E4, size: 0x8, addend: 0x0, symName: __ZNSt3__116__deque_iteratorINS_4pairIiiEEPS2_RS2_PS3_lLl512EEppB8ne180100Ev, symObjAddr: 0x13E4, symBinAddr: 0x10000437C, symSize: 0x70 }
  - { offset: 0xE209, size: 0x8, addend: 0x0, symName: __ZNSt3__15dequeINS_4pairIiiEENS_9allocatorIS2_EEE6__sizeB8ne180100Ev, symObjAddr: 0x1454, symBinAddr: 0x1000043EC, symSize: 0x28 }
  - { offset: 0xE22E, size: 0x8, addend: 0x0, symName: __ZNKSt3__114__split_bufferIPNS_4pairIiiEENS_9allocatorIS3_EEE4sizeB8ne180100Ev, symObjAddr: 0x147C, symBinAddr: 0x100004414, symSize: 0x28 }
  - { offset: 0xE253, size: 0x8, addend: 0x0, symName: __ZNSt3__114__split_bufferIPNS_4pairIiiEENS_9allocatorIS3_EEE5frontB8ne180100Ev, symObjAddr: 0x14A4, symBinAddr: 0x10000443C, symSize: 0x18 }
  - { offset: 0xE278, size: 0x8, addend: 0x0, symName: __ZNSt3__114__split_bufferIPNS_4pairIiiEENS_9allocatorIS3_EEE9pop_frontB8ne180100Ev, symObjAddr: 0x14BC, symBinAddr: 0x100004454, symSize: 0x2C }
  - { offset: 0xE29D, size: 0x8, addend: 0x0, symName: __ZNKSt3__114__split_bufferIPNS_4pairIiiEENS_9allocatorIS3_EEE5emptyB8ne180100Ev, symObjAddr: 0x14E8, symBinAddr: 0x100004480, symSize: 0x28 }
  - { offset: 0xE2C1, size: 0x8, addend: 0x0, symName: __ZNSt3__116__deque_iteratorINS_4pairIiiEEPS2_RS2_PS3_lLl512EEC1B8ne180100ES5_S3_, symObjAddr: 0x1510, symBinAddr: 0x1000044A8, symSize: 0x3C }
  - { offset: 0xE308, size: 0x8, addend: 0x0, symName: __ZNSt3__116__deque_iteratorINS_4pairIiiEEPS2_RS2_PS3_lLl512EEC2B8ne180100ES5_S3_, symObjAddr: 0x154C, symBinAddr: 0x1000044E4, symSize: 0x2C }
  - { offset: 0xE34F, size: 0x8, addend: 0x0, symName: __ZNKSt3__15dequeINS_4pairIiiEENS_9allocatorIS2_EEE4sizeB8ne180100Ev, symObjAddr: 0x1578, symBinAddr: 0x100004510, symSize: 0x28 }
  - { offset: 0xE374, size: 0x8, addend: 0x0, symName: __ZNKSt3__15dequeINS_4pairIiiEENS_9allocatorIS2_EEE6__sizeB8ne180100Ev, symObjAddr: 0x15A0, symBinAddr: 0x100004538, symSize: 0x28 }
  - { offset: 0xE399, size: 0x8, addend: 0x0, symName: __ZNKSt3__117__compressed_pairImNS_9allocatorINS_4pairIiiEEEEE5firstB8ne180100Ev, symObjAddr: 0x15C8, symBinAddr: 0x100004560, symSize: 0x24 }
  - { offset: 0xE3BE, size: 0x8, addend: 0x0, symName: __ZNKSt3__122__compressed_pair_elemImLi0ELb0EE5__getB8ne180100Ev, symObjAddr: 0x15EC, symBinAddr: 0x100004584, symSize: 0x14 }
  - { offset: 0xE3E3, size: 0x8, addend: 0x0, symName: __ZNSt3__19allocatorINS_4pairIiiEEE7destroyB8ne180100EPS2_, symObjAddr: 0x1630, symBinAddr: 0x1000045C8, symSize: 0x14 }
  - { offset: 0xE416, size: 0x8, addend: 0x0, symName: __ZNSt3__117__compressed_pairImNS_9allocatorINS_4pairIiiEEEEE5firstB8ne180100Ev, symObjAddr: 0x1644, symBinAddr: 0x1000045DC, symSize: 0x24 }
  - { offset: 0xE43B, size: 0x8, addend: 0x0, symName: __ZNSt3__122__compressed_pair_elemImLi0ELb0EE5__getB8ne180100Ev, symObjAddr: 0x1668, symBinAddr: 0x100004600, symSize: 0x14 }
  - { offset: 0xE460, size: 0x8, addend: 0x0, symName: __ZNSt3__114__split_bufferIPNS_4pairIiiEENS_9allocatorIS3_EEE19__destruct_at_beginB8ne180100EPS3_, symObjAddr: 0x167C, symBinAddr: 0x100004614, symSize: 0x2C }
  - { offset: 0xE493, size: 0x8, addend: 0x0, symName: __ZNSt3__114__split_bufferIPNS_4pairIiiEENS_9allocatorIS3_EEE19__destruct_at_beginEPS3_NS_17integral_constantIbLb1EEE, symObjAddr: 0x16A8, symBinAddr: 0x100004640, symSize: 0x20 }
  - { offset: 0xE4D2, size: 0x8, addend: 0x0, symName: __ZNSt3__19allocatorINS_4pairIiiEEE10deallocateB8ne180100EPS2_m, symObjAddr: 0x16C8, symBinAddr: 0x100004660, symSize: 0x40 }
  - { offset: 0xE513, size: 0x8, addend: 0x0, symName: __ZNSt3__117__compressed_pairImNS_9allocatorINS_4pairIiiEEEEE6secondB8ne180100Ev, symObjAddr: 0x1784, symBinAddr: 0x10000471C, symSize: 0x24 }
  - { offset: 0xE538, size: 0x8, addend: 0x0, symName: __ZNSt3__122__compressed_pair_elemINS_9allocatorINS_4pairIiiEEEELi1ELb1EE5__getB8ne180100Ev, symObjAddr: 0x17A8, symBinAddr: 0x100004740, symSize: 0x14 }
  - { offset: 0xE55D, size: 0x8, addend: 0x0, symName: __ZNSt3__114__split_bufferIPNS_4pairIiiEENS_9allocatorIS3_EEED2Ev, symObjAddr: 0x17BC, symBinAddr: 0x100004754, symSize: 0x8C }
  - { offset: 0xE588, size: 0x8, addend: 0x0, symName: __ZNSt3__114__split_bufferIPNS_4pairIiiEENS_9allocatorIS3_EEE5clearB8ne180100Ev, symObjAddr: 0x1848, symBinAddr: 0x1000047E0, symSize: 0x28 }
  - { offset: 0xE5AD, size: 0x8, addend: 0x0, symName: __ZNSt3__116allocator_traitsINS_9allocatorIPNS_4pairIiiEEEEE10deallocateB8ne180100ERS5_PS4_m, symObjAddr: 0x1870, symBinAddr: 0x100004808, symSize: 0x34 }
  - { offset: 0xE5EF, size: 0x8, addend: 0x0, symName: __ZNSt3__114__split_bufferIPNS_4pairIiiEENS_9allocatorIS3_EEE7__allocB8ne180100Ev, symObjAddr: 0x18A4, symBinAddr: 0x10000483C, symSize: 0x28 }
  - { offset: 0xE614, size: 0x8, addend: 0x0, symName: __ZNKSt3__114__split_bufferIPNS_4pairIiiEENS_9allocatorIS3_EEE8capacityB8ne180100Ev, symObjAddr: 0x18CC, symBinAddr: 0x100004864, symSize: 0x40 }
  - { offset: 0xE639, size: 0x8, addend: 0x0, symName: __ZNSt3__114__split_bufferIPNS_4pairIiiEENS_9allocatorIS3_EEE17__destruct_at_endB8ne180100EPS3_, symObjAddr: 0x190C, symBinAddr: 0x1000048A4, symSize: 0x2C }
  - { offset: 0xE66C, size: 0x8, addend: 0x0, symName: __ZNSt3__114__split_bufferIPNS_4pairIiiEENS_9allocatorIS3_EEE17__destruct_at_endB8ne180100EPS3_NS_17integral_constantIbLb0EEE, symObjAddr: 0x1938, symBinAddr: 0x1000048D0, symSize: 0x80 }
  - { offset: 0xE6AB, size: 0x8, addend: 0x0, symName: __ZNSt3__116allocator_traitsINS_9allocatorIPNS_4pairIiiEEEEE7destroyB8ne180100IS4_vEEvRS5_PT_, symObjAddr: 0x19B8, symBinAddr: 0x100004950, symSize: 0x2C }
  - { offset: 0xE6E8, size: 0x8, addend: 0x0, symName: __ZNSt3__19allocatorIPNS_4pairIiiEEE7destroyB8ne180100EPS3_, symObjAddr: 0x19F8, symBinAddr: 0x100004990, symSize: 0x14 }
  - { offset: 0xE71B, size: 0x8, addend: 0x0, symName: __ZNSt3__19allocatorIPNS_4pairIiiEEE10deallocateB8ne180100EPS3_m, symObjAddr: 0x1A0C, symBinAddr: 0x1000049A4, symSize: 0x40 }
  - { offset: 0xE75C, size: 0x8, addend: 0x0, symName: __ZNSt3__117__compressed_pairIPPNS_4pairIiiEENS_9allocatorIS3_EEE6secondB8ne180100Ev, symObjAddr: 0x1A4C, symBinAddr: 0x1000049E4, symSize: 0x24 }
  - { offset: 0xE781, size: 0x8, addend: 0x0, symName: __ZNSt3__122__compressed_pair_elemINS_9allocatorIPNS_4pairIiiEEEELi1ELb1EE5__getB8ne180100Ev, symObjAddr: 0x1A70, symBinAddr: 0x100004A08, symSize: 0x14 }
  - { offset: 0xE7A6, size: 0x8, addend: 0x0, symName: __ZNKSt3__114__split_bufferIPNS_4pairIiiEENS_9allocatorIS3_EEE9__end_capB8ne180100Ev, symObjAddr: 0x1A84, symBinAddr: 0x100004A1C, symSize: 0x28 }
  - { offset: 0xE7CB, size: 0x8, addend: 0x0, symName: __ZNKSt3__117__compressed_pairIPPNS_4pairIiiEENS_9allocatorIS3_EEE5firstB8ne180100Ev, symObjAddr: 0x1AAC, symBinAddr: 0x100004A44, symSize: 0x24 }
  - { offset: 0xE7F0, size: 0x8, addend: 0x0, symName: __ZNKSt3__122__compressed_pair_elemIPPNS_4pairIiiEELi0ELb0EE5__getB8ne180100Ev, symObjAddr: 0x1AD0, symBinAddr: 0x100004A68, symSize: 0x14 }
  - { offset: 0xE815, size: 0x8, addend: 0x0, symName: __ZNSt3__16vectorIbNS_9allocatorIbEEE10__make_refB8ne180100Em, symObjAddr: 0x1AE4, symBinAddr: 0x100004A7C, symSize: 0x60 }
  - { offset: 0xE848, size: 0x8, addend: 0x0, symName: __ZNSt3__115__bit_referenceINS_6vectorIbNS_9allocatorIbEEEELb1EEC1B8ne180100EPmm, symObjAddr: 0x1B44, symBinAddr: 0x100004ADC, symSize: 0x3C }
  - { offset: 0xE88D, size: 0x8, addend: 0x0, symName: __ZNSt3__115__bit_referenceINS_6vectorIbNS_9allocatorIbEEEELb1EEC2B8ne180100EPmm, symObjAddr: 0x1B80, symBinAddr: 0x100004B18, symSize: 0x2C }
  - { offset: 0xE8D2, size: 0x8, addend: 0x0, symName: __ZNKSt3__15dequeINS_4pairIiiEENS_9allocatorIS2_EEE12__back_spareB8ne180100Ev, symObjAddr: 0x1BAC, symBinAddr: 0x100004B44, symSize: 0x54 }
  - { offset: 0xE8F7, size: 0x8, addend: 0x0, symName: __ZNSt3__15dequeINS_4pairIiiEENS_9allocatorIS2_EEE19__add_back_capacityEv, symObjAddr: 0x1C00, symBinAddr: 0x100004B98, symSize: 0x34C }
  - { offset: 0xE9AB, size: 0x8, addend: 0x0, symName: __ZNKSt3__15dequeINS_4pairIiiEENS_9allocatorIS2_EEE24__annotate_increase_backB8ne180100Em, symObjAddr: 0x1F4C, symBinAddr: 0x100004EE4, symSize: 0x14 }
  - { offset: 0xE9DF, size: 0x8, addend: 0x0, symName: __ZNSt3__116allocator_traitsINS_9allocatorINS_4pairIiiEEEEE9constructB8ne180100IS3_JS3_EvEEvRS4_PT_DpOT0_, symObjAddr: 0x1F60, symBinAddr: 0x100004EF8, symSize: 0x34 }
  - { offset: 0xEA36, size: 0x8, addend: 0x0, symName: __ZNKSt3__15dequeINS_4pairIiiEENS_9allocatorIS2_EEE10__capacityB8ne180100Ev, symObjAddr: 0x1F94, symBinAddr: 0x100004F2C, symSize: 0x60 }
  - { offset: 0xEA5B, size: 0x8, addend: 0x0, symName: __ZNKSt3__15dequeINS_4pairIiiEENS_9allocatorIS2_EEE13__front_spareB8ne180100Ev, symObjAddr: 0x1FF4, symBinAddr: 0x100004F8C, symSize: 0x18 }
  - { offset: 0xEA80, size: 0x8, addend: 0x0, symName: __ZNSt3__114__split_bufferIPNS_4pairIiiEENS_9allocatorIS3_EEE9push_backB8ne180100ERKS3_, symObjAddr: 0x200C, symBinAddr: 0x100004FA4, symSize: 0x260 }
  - { offset: 0xEAF7, size: 0x8, addend: 0x0, symName: __ZNKSt3__114__split_bufferIPNS_4pairIiiEENS_9allocatorIS3_EEE12__back_spareB8ne180100Ev, symObjAddr: 0x226C, symBinAddr: 0x100005204, symSize: 0x40 }
  - { offset: 0xEB1C, size: 0x8, addend: 0x0, symName: __ZNSt3__114__split_bufferIPNS_4pairIiiEENS_9allocatorIS3_EEE9push_backEOS3_, symObjAddr: 0x22AC, symBinAddr: 0x100005244, symSize: 0x260 }
  - { offset: 0xEB93, size: 0x8, addend: 0x0, symName: __ZNSt3__116allocator_traitsINS_9allocatorINS_4pairIiiEEEEE8allocateB8ne180100ERS4_m, symObjAddr: 0x250C, symBinAddr: 0x1000054A4, symSize: 0x2C }
  - { offset: 0xEBC6, size: 0x8, addend: 0x0, symName: __ZNSt3__114__split_bufferIPNS_4pairIiiEENS_9allocatorIS3_EEE10push_frontEOS3_, symObjAddr: 0x2538, symBinAddr: 0x1000054D0, symSize: 0x25C }
  - { offset: 0xEC3D, size: 0x8, addend: 0x0, symName: __ZNKSt3__15dequeINS_4pairIiiEENS_9allocatorIS2_EEE22__annotate_whole_blockB8ne180100EmNS5_22__asan_annotation_typeE, symObjAddr: 0x2794, symBinAddr: 0x10000572C, symSize: 0x18 }
  - { offset: 0xEC80, size: 0x8, addend: 0x0, symName: __ZNSt3__114__split_bufferIPNS_4pairIiiEERNS_9allocatorIS3_EEEC1EmmS6_, symObjAddr: 0x27D8, symBinAddr: 0x100005770, symSize: 0x44 }
  - { offset: 0xECD9, size: 0x8, addend: 0x0, symName: __ZNSt3__122__allocator_destructorINS_9allocatorINS_4pairIiiEEEEEC1B8ne180100ERS4_m, symObjAddr: 0x281C, symBinAddr: 0x1000057B4, symSize: 0x3C }
  - { offset: 0xEDA5, size: 0x8, addend: 0x0, symName: __ZNSt3__110unique_ptrIPNS_4pairIiiEENS_22__allocator_destructorINS_9allocatorIS2_EEEEEC1B8ne180100ILb1EvEES3_NS_16__dependent_typeINS_27__unique_ptr_deleter_sfinaeIS7_EEXT_EE20__good_rval_ref_typeE, symObjAddr: 0x2858, symBinAddr: 0x1000057F0, symSize: 0x3C }
  - { offset: 0xEDF5, size: 0x8, addend: 0x0, symName: __ZNSt3__114__split_bufferIPNS_4pairIiiEERNS_9allocatorIS3_EEE9push_backEOS3_, symObjAddr: 0x2894, symBinAddr: 0x10000582C, symSize: 0x260 }
  - { offset: 0xEE6C, size: 0x8, addend: 0x0, symName: __ZNKSt3__110unique_ptrIPNS_4pairIiiEENS_22__allocator_destructorINS_9allocatorIS2_EEEEE3getB8ne180100Ev, symObjAddr: 0x2AF4, symBinAddr: 0x100005A8C, symSize: 0x28 }
  - { offset: 0xEE91, size: 0x8, addend: 0x0, symName: __ZNSt3__110unique_ptrIPNS_4pairIiiEENS_22__allocator_destructorINS_9allocatorIS2_EEEEE7releaseB8ne180100Ev, symObjAddr: 0x2B1C, symBinAddr: 0x100005AB4, symSize: 0x44 }
  - { offset: 0xEEC5, size: 0x8, addend: 0x0, symName: __ZNSt3__114__split_bufferIPNS_4pairIiiEERNS_9allocatorIS3_EEE10push_frontERKS3_, symObjAddr: 0x2B60, symBinAddr: 0x100005AF8, symSize: 0x25C }
  - { offset: 0xEF3C, size: 0x8, addend: 0x0, symName: __ZNSt3__114__split_bufferIPNS_4pairIiiEENS_9allocatorIS3_EEE9__end_capB8ne180100Ev, symObjAddr: 0x2DF8, symBinAddr: 0x100005D90, symSize: 0x28 }
  - { offset: 0xEF61, size: 0x8, addend: 0x0, symName: __ZNSt3__114__split_bufferIPNS_4pairIiiEERNS_9allocatorIS3_EEE9__end_capB8ne180100Ev, symObjAddr: 0x2E20, symBinAddr: 0x100005DB8, symSize: 0x28 }
  - { offset: 0xEF85, size: 0x8, addend: 0x0, symName: __ZNSt3__110unique_ptrIPNS_4pairIiiEENS_22__allocator_destructorINS_9allocatorIS2_EEEEED1B8ne180100Ev, symObjAddr: 0x2E48, symBinAddr: 0x100005DE0, symSize: 0x2C }
  - { offset: 0xEFAE, size: 0x8, addend: 0x0, symName: __ZNSt3__114__split_bufferIPNS_4pairIiiEERNS_9allocatorIS3_EEED1Ev, symObjAddr: 0x2E74, symBinAddr: 0x100005E0C, symSize: 0x2C }
  - { offset: 0xEFD9, size: 0x8, addend: 0x0, symName: __ZNSt3__114__split_bufferIPNS_4pairIiiEERNS_9allocatorIS3_EEE18__construct_at_endINS_13move_iteratorIPS3_EELi0EEEvT_SC_, symObjAddr: 0x2EE0, symBinAddr: 0x100005E78, symSize: 0x60 }
  - { offset: 0xF02A, size: 0x8, addend: 0x0, symName: __ZNSt3__113move_iteratorIPPNS_4pairIiiEEEC1B8ne180100ES4_, symObjAddr: 0x2F40, symBinAddr: 0x100005ED8, symSize: 0x34 }
  - { offset: 0xF061, size: 0x8, addend: 0x0, symName: __ZNSt3__116allocator_traitsINS_9allocatorIPNS_4pairIiiEEEEE9constructB8ne180100IS4_JRKS4_EvEEvRS5_PT_DpOT0_, symObjAddr: 0x2F74, symBinAddr: 0x100005F0C, symSize: 0x34 }
  - { offset: 0xF0DB, size: 0x8, addend: 0x0, symName: __ZNKSt3__114__move_trivialclB8ne180100IPNS_4pairIiiEES4_Li0EEENS2_IPT_PT0_EES6_S6_S8_, symObjAddr: 0x3144, symBinAddr: 0x1000060DC, symSize: 0x48 }
  - { offset: 0xF146, size: 0x8, addend: 0x0, symName: __ZNSt3__14pairIPPNS0_IiiEES3_EC1B8ne180100IRS3_S3_Li0EEEOT_OT0_, symObjAddr: 0x336C, symBinAddr: 0x100006304, symSize: 0x3C }
  - { offset: 0xF1A3, size: 0x8, addend: 0x0, symName: __ZNSt3__14pairIPPNS0_IiiEES3_EC2B8ne180100IRS3_S3_Li0EEEOT_OT0_, symObjAddr: 0x33A8, symBinAddr: 0x100006340, symSize: 0x34 }
  - { offset: 0xF200, size: 0x8, addend: 0x0, symName: __ZNSt3__118__unwrap_iter_implIPPNS_4pairIiiEELb1EE8__unwrapB8ne180100ES4_, symObjAddr: 0x33DC, symBinAddr: 0x100006374, symSize: 0x24 }
  - { offset: 0xF222, size: 0x8, addend: 0x0, symName: __ZNSt3__14pairIPPNS0_IiiEES3_EC1B8ne180100IS3_S3_Li0EEEOT_OT0_, symObjAddr: 0x3400, symBinAddr: 0x100006398, symSize: 0x3C }
  - { offset: 0xF27F, size: 0x8, addend: 0x0, symName: __ZNSt3__14pairIPPNS0_IiiEES3_EC2B8ne180100IS3_S3_Li0EEEOT_OT0_, symObjAddr: 0x343C, symBinAddr: 0x1000063D4, symSize: 0x34 }
  - { offset: 0xF2DC, size: 0x8, addend: 0x0, symName: __ZNSt3__118__unwrap_iter_implIPPNS_4pairIiiEELb1EE8__rewrapB8ne180100ES4_S4_, symObjAddr: 0x3470, symBinAddr: 0x100006408, symSize: 0x50 }
  - { offset: 0xF30D, size: 0x8, addend: 0x0, symName: __ZNSt3__114__split_bufferIPNS_4pairIiiEERNS_9allocatorIS3_EEE28__construct_at_end_with_sizeINS_13move_iteratorIPS3_EEEEvT_m, symObjAddr: 0x34C0, symBinAddr: 0x100006458, symSize: 0xDC }
  - { offset: 0xF371, size: 0x8, addend: 0x0, symName: __ZNSt3__114__split_bufferIPNS_4pairIiiEERNS_9allocatorIS3_EEE21_ConstructTransactionC1B8ne180100EPPS3_m, symObjAddr: 0x35D8, symBinAddr: 0x100006570, symSize: 0x3C }
  - { offset: 0xF3B6, size: 0x8, addend: 0x0, symName: __ZNSt3__116allocator_traitsINS_9allocatorIPNS_4pairIiiEEEEE9constructB8ne180100IS4_JS4_EvEEvRS5_PT_DpOT0_, symObjAddr: 0x3614, symBinAddr: 0x1000065AC, symSize: 0x34 }
  - { offset: 0xF40D, size: 0x8, addend: 0x0, symName: __ZNSt3__114__split_bufferIPNS_4pairIiiEERNS_9allocatorIS3_EEE7__allocB8ne180100Ev, symObjAddr: 0x3648, symBinAddr: 0x1000065E0, symSize: 0x28 }
  - { offset: 0xF432, size: 0x8, addend: 0x0, symName: __ZNKSt3__113move_iteratorIPPNS_4pairIiiEEEdeB8ne180100Ev, symObjAddr: 0x3670, symBinAddr: 0x100006608, symSize: 0x18 }
  - { offset: 0xF457, size: 0x8, addend: 0x0, symName: __ZNSt3__113move_iteratorIPPNS_4pairIiiEEEppB8ne180100Ev, symObjAddr: 0x3688, symBinAddr: 0x100006620, symSize: 0x20 }
  - { offset: 0xF47B, size: 0x8, addend: 0x0, symName: __ZNSt3__114__split_bufferIPNS_4pairIiiEERNS_9allocatorIS3_EEE21_ConstructTransactionD1B8ne180100Ev, symObjAddr: 0x36A8, symBinAddr: 0x100006640, symSize: 0x2C }
  - { offset: 0xF4A4, size: 0x8, addend: 0x0, symName: __ZNSt3__114__split_bufferIPNS_4pairIiiEERNS_9allocatorIS3_EEE21_ConstructTransactionC2B8ne180100EPPS3_m, symObjAddr: 0x36D4, symBinAddr: 0x10000666C, symSize: 0x44 }
  - { offset: 0xF4E9, size: 0x8, addend: 0x0, symName: __ZNSt3__19allocatorIPNS_4pairIiiEEE9constructB8ne180100IS3_JS3_EEEvPT_DpOT0_, symObjAddr: 0x3718, symBinAddr: 0x1000066B0, symSize: 0x28 }
  - { offset: 0xF53E, size: 0x8, addend: 0x0, symName: __ZNSt3__117__compressed_pairIPPNS_4pairIiiEERNS_9allocatorIS3_EEE6secondB8ne180100Ev, symObjAddr: 0x3740, symBinAddr: 0x1000066D8, symSize: 0x28 }
  - { offset: 0xF563, size: 0x8, addend: 0x0, symName: __ZNSt3__122__compressed_pair_elemIRNS_9allocatorIPNS_4pairIiiEEEELi1ELb0EE5__getB8ne180100Ev, symObjAddr: 0x3768, symBinAddr: 0x100006700, symSize: 0x18 }
  - { offset: 0xF588, size: 0x8, addend: 0x0, symName: __ZNSt3__114__split_bufferIPNS_4pairIiiEERNS_9allocatorIS3_EEE21_ConstructTransactionD2B8ne180100Ev, symObjAddr: 0x3780, symBinAddr: 0x100006718, symSize: 0x20 }
  - { offset: 0xF5B1, size: 0x8, addend: 0x0, symName: __ZNKSt3__113move_iteratorIPPNS_4pairIiiEEE4baseB8ne180100Ev, symObjAddr: 0x3818, symBinAddr: 0x1000067B0, symSize: 0x18 }
  - { offset: 0xF5D6, size: 0x8, addend: 0x0, symName: __ZNSt3__113move_iteratorIPPNS_4pairIiiEEEC2B8ne180100ES4_, symObjAddr: 0x3830, symBinAddr: 0x1000067C8, symSize: 0x20 }
  - { offset: 0xF60D, size: 0x8, addend: 0x0, symName: __ZNSt3__19allocatorIPNS_4pairIiiEEE9constructB8ne180100IS3_JRKS3_EEEvPT_DpOT0_, symObjAddr: 0x3850, symBinAddr: 0x1000067E8, symSize: 0x28 }
  - { offset: 0xF662, size: 0x8, addend: 0x0, symName: __ZNSt3__19allocatorINS_4pairIiiEEE8allocateB8ne180100Em, symObjAddr: 0x3878, symBinAddr: 0x100006810, symSize: 0x58 }
  - { offset: 0xF69F, size: 0x8, addend: 0x0, symName: __ZNSt3__116allocator_traitsINS_9allocatorINS_4pairIiiEEEEE8max_sizeB8ne180100IS4_vEEmRKS4_, symObjAddr: 0x38D0, symBinAddr: 0x100006868, symSize: 0x24 }
  - { offset: 0xF6CD, size: 0x8, addend: 0x0, symName: __ZNKSt3__19allocatorINS_4pairIiiEEE8max_sizeB8ne180100Ev, symObjAddr: 0x3950, symBinAddr: 0x1000068E8, symSize: 0x14 }
  - { offset: 0xF6FC, size: 0x8, addend: 0x0, symName: __ZNKSt3__123__move_backward_trivialclB8ne180100IPNS_4pairIiiEES4_Li0EEENS2_IPT_PT0_EES6_S6_S8_, symObjAddr: 0x3B04, symBinAddr: 0x100006A9C, symSize: 0x48 }
  - { offset: 0xF762, size: 0x8, addend: 0x0, symName: __ZNSt3__14pairIPPNS0_IiiEES3_EC1B8ne180100IRS3_S6_Li0EEEOT_OT0_, symObjAddr: 0x3C14, symBinAddr: 0x100006BAC, symSize: 0x3C }
  - { offset: 0xF7BF, size: 0x8, addend: 0x0, symName: __ZNSt3__14pairIPPNS0_IiiEES3_EC2B8ne180100IRS3_S6_Li0EEEOT_OT0_, symObjAddr: 0x3C50, symBinAddr: 0x100006BE8, symSize: 0x34 }
  - { offset: 0xF826, size: 0x8, addend: 0x0, symName: __ZNKSt3__16__lessIvvEclB8ne180100ImmEEbRKT_RKT0_, symObjAddr: 0x3CD8, symBinAddr: 0x100006C70, symSize: 0x34 }
  - { offset: 0xF879, size: 0x8, addend: 0x0, symName: __ZNSt3__114__split_bufferIPNS_4pairIiiEERNS_9allocatorIS3_EEEC2EmmS6_, symObjAddr: 0x3D0C, symBinAddr: 0x100006CA4, symSize: 0xD4 }
  - { offset: 0xF8EA, size: 0x8, addend: 0x0, symName: __ZNSt3__117__compressed_pairIPPNS_4pairIiiEERNS_9allocatorIS3_EEEC1B8ne180100IDnS7_EEOT_OT0_, symObjAddr: 0x3DE0, symBinAddr: 0x100006D78, symSize: 0x3C }
  - { offset: 0xF940, size: 0x8, addend: 0x0, symName: __ZNSt3__117__compressed_pairIPPNS_4pairIiiEERNS_9allocatorIS3_EEEC2B8ne180100IDnS7_EEOT_OT0_, symObjAddr: 0x3E5C, symBinAddr: 0x100006DF4, symSize: 0x48 }
  - { offset: 0xF997, size: 0x8, addend: 0x0, symName: __ZNSt3__122__compressed_pair_elemIRNS_9allocatorIPNS_4pairIiiEEEELi1ELb0EEC2B8ne180100IS6_vEEOT_, symObjAddr: 0x3EA4, symBinAddr: 0x100006E3C, symSize: 0x20 }
  - { offset: 0xF9D8, size: 0x8, addend: 0x0, symName: __ZNSt3__19allocatorIPNS_4pairIiiEEE8allocateB8ne180100Em, symObjAddr: 0x3EC4, symBinAddr: 0x100006E5C, symSize: 0x58 }
  - { offset: 0xFA15, size: 0x8, addend: 0x0, symName: __ZNSt3__116allocator_traitsINS_9allocatorIPNS_4pairIiiEEEEE8max_sizeB8ne180100IS5_vEEmRKS5_, symObjAddr: 0x3F1C, symBinAddr: 0x100006EB4, symSize: 0x24 }
  - { offset: 0xFA43, size: 0x8, addend: 0x0, symName: __ZNKSt3__19allocatorIPNS_4pairIiiEEE8max_sizeB8ne180100Ev, symObjAddr: 0x3F40, symBinAddr: 0x100006ED8, symSize: 0x14 }
  - { offset: 0xFA68, size: 0x8, addend: 0x0, symName: __ZNSt3__122__allocator_destructorINS_9allocatorINS_4pairIiiEEEEEC2B8ne180100ERS4_m, symObjAddr: 0x3F54, symBinAddr: 0x100006EEC, symSize: 0x2C }
  - { offset: 0xFAAC, size: 0x8, addend: 0x0, symName: __ZNSt3__110unique_ptrIPNS_4pairIiiEENS_22__allocator_destructorINS_9allocatorIS2_EEEEEC2B8ne180100ILb1EvEES3_NS_16__dependent_typeINS_27__unique_ptr_deleter_sfinaeIS7_EEXT_EE20__good_rval_ref_typeE, symObjAddr: 0x3F80, symBinAddr: 0x100006F18, symSize: 0x48 }
  - { offset: 0xFAFB, size: 0x8, addend: 0x0, symName: __ZNSt3__117__compressed_pairIPNS_4pairIiiEENS_22__allocator_destructorINS_9allocatorIS2_EEEEEC1B8ne180100IRS3_S7_EEOT_OT0_, symObjAddr: 0x3FC8, symBinAddr: 0x100006F60, symSize: 0x3C }
  - { offset: 0xFB51, size: 0x8, addend: 0x0, symName: __ZNSt3__117__compressed_pairIPNS_4pairIiiEENS_22__allocator_destructorINS_9allocatorIS2_EEEEEC2B8ne180100IRS3_S7_EEOT_OT0_, symObjAddr: 0x4004, symBinAddr: 0x100006F9C, symSize: 0x48 }
  - { offset: 0xFBA8, size: 0x8, addend: 0x0, symName: __ZNSt3__122__compressed_pair_elemIPNS_4pairIiiEELi0ELb0EEC2B8ne180100IRS3_vEEOT_, symObjAddr: 0x404C, symBinAddr: 0x100006FE4, symSize: 0x24 }
  - { offset: 0xFBE9, size: 0x8, addend: 0x0, symName: __ZNSt3__122__compressed_pair_elemINS_22__allocator_destructorINS_9allocatorINS_4pairIiiEEEEEELi1ELb0EEC2B8ne180100IS6_vEEOT_, symObjAddr: 0x4070, symBinAddr: 0x100007008, symSize: 0x24 }
  - { offset: 0xFC2A, size: 0x8, addend: 0x0, symName: __ZNKSt3__117__compressed_pairIPNS_4pairIiiEENS_22__allocator_destructorINS_9allocatorIS2_EEEEE5firstB8ne180100Ev, symObjAddr: 0x4094, symBinAddr: 0x10000702C, symSize: 0x24 }
  - { offset: 0xFC4F, size: 0x8, addend: 0x0, symName: __ZNKSt3__122__compressed_pair_elemIPNS_4pairIiiEELi0ELb0EE5__getB8ne180100Ev, symObjAddr: 0x40B8, symBinAddr: 0x100007050, symSize: 0x14 }
  - { offset: 0xFC74, size: 0x8, addend: 0x0, symName: __ZNSt3__117__compressed_pairIPNS_4pairIiiEENS_22__allocator_destructorINS_9allocatorIS2_EEEEE5firstB8ne180100Ev, symObjAddr: 0x40CC, symBinAddr: 0x100007064, symSize: 0x24 }
  - { offset: 0xFC99, size: 0x8, addend: 0x0, symName: __ZNSt3__122__compressed_pair_elemIPNS_4pairIiiEELi0ELb0EE5__getB8ne180100Ev, symObjAddr: 0x40F0, symBinAddr: 0x100007088, symSize: 0x14 }
  - { offset: 0xFCBE, size: 0x8, addend: 0x0, symName: __ZNSt3__117__compressed_pairIPPNS_4pairIiiEENS_9allocatorIS3_EEE5firstB8ne180100Ev, symObjAddr: 0x4104, symBinAddr: 0x10000709C, symSize: 0x24 }
  - { offset: 0xFCE3, size: 0x8, addend: 0x0, symName: __ZNSt3__122__compressed_pair_elemIPPNS_4pairIiiEELi0ELb0EE5__getB8ne180100Ev, symObjAddr: 0x4128, symBinAddr: 0x1000070C0, symSize: 0x14 }
  - { offset: 0xFD08, size: 0x8, addend: 0x0, symName: __ZNSt3__117__compressed_pairIPPNS_4pairIiiEERNS_9allocatorIS3_EEE5firstB8ne180100Ev, symObjAddr: 0x413C, symBinAddr: 0x1000070D4, symSize: 0x24 }
  - { offset: 0xFD2C, size: 0x8, addend: 0x0, symName: __ZNSt3__110unique_ptrIPNS_4pairIiiEENS_22__allocator_destructorINS_9allocatorIS2_EEEEED2B8ne180100Ev, symObjAddr: 0x4160, symBinAddr: 0x1000070F8, symSize: 0x30 }
  - { offset: 0xFD55, size: 0x8, addend: 0x0, symName: __ZNSt3__110unique_ptrIPNS_4pairIiiEENS_22__allocator_destructorINS_9allocatorIS2_EEEEE5resetB8ne180100ES3_, symObjAddr: 0x4190, symBinAddr: 0x100007128, symSize: 0x78 }
  - { offset: 0xFD98, size: 0x8, addend: 0x0, symName: __ZNSt3__117__compressed_pairIPNS_4pairIiiEENS_22__allocator_destructorINS_9allocatorIS2_EEEEE6secondB8ne180100Ev, symObjAddr: 0x4208, symBinAddr: 0x1000071A0, symSize: 0x28 }
  - { offset: 0xFDBD, size: 0x8, addend: 0x0, symName: __ZNSt3__122__allocator_destructorINS_9allocatorINS_4pairIiiEEEEEclB8ne180100EPS3_, symObjAddr: 0x4230, symBinAddr: 0x1000071C8, symSize: 0x34 }
  - { offset: 0xFDF0, size: 0x8, addend: 0x0, symName: __ZNSt3__122__compressed_pair_elemINS_22__allocator_destructorINS_9allocatorINS_4pairIiiEEEEEELi1ELb0EE5__getB8ne180100Ev, symObjAddr: 0x4264, symBinAddr: 0x1000071FC, symSize: 0x14 }
  - { offset: 0xFE15, size: 0x8, addend: 0x0, symName: __ZNSt3__114__split_bufferIPNS_4pairIiiEERNS_9allocatorIS3_EEED2Ev, symObjAddr: 0x4278, symBinAddr: 0x100007210, symSize: 0x8C }
  - { offset: 0xFE40, size: 0x8, addend: 0x0, symName: __ZNSt3__114__split_bufferIPNS_4pairIiiEERNS_9allocatorIS3_EEE5clearB8ne180100Ev, symObjAddr: 0x4304, symBinAddr: 0x10000729C, symSize: 0x28 }
  - { offset: 0xFE65, size: 0x8, addend: 0x0, symName: __ZNKSt3__114__split_bufferIPNS_4pairIiiEERNS_9allocatorIS3_EEE8capacityB8ne180100Ev, symObjAddr: 0x432C, symBinAddr: 0x1000072C4, symSize: 0x40 }
  - { offset: 0xFE8A, size: 0x8, addend: 0x0, symName: __ZNSt3__114__split_bufferIPNS_4pairIiiEERNS_9allocatorIS3_EEE17__destruct_at_endB8ne180100EPS3_, symObjAddr: 0x436C, symBinAddr: 0x100007304, symSize: 0x2C }
  - { offset: 0xFEBD, size: 0x8, addend: 0x0, symName: __ZNSt3__114__split_bufferIPNS_4pairIiiEERNS_9allocatorIS3_EEE17__destruct_at_endB8ne180100EPS3_NS_17integral_constantIbLb0EEE, symObjAddr: 0x4398, symBinAddr: 0x100007330, symSize: 0x80 }
  - { offset: 0xFEFC, size: 0x8, addend: 0x0, symName: __ZNKSt3__114__split_bufferIPNS_4pairIiiEERNS_9allocatorIS3_EEE9__end_capB8ne180100Ev, symObjAddr: 0x4418, symBinAddr: 0x1000073B0, symSize: 0x28 }
  - { offset: 0xFF21, size: 0x8, addend: 0x0, symName: __ZNKSt3__117__compressed_pairIPPNS_4pairIiiEERNS_9allocatorIS3_EEE5firstB8ne180100Ev, symObjAddr: 0x4440, symBinAddr: 0x1000073D8, symSize: 0x24 }
  - { offset: 0xFF46, size: 0x8, addend: 0x0, symName: __ZNSt3__19allocatorINS_4pairIiiEEE9constructB8ne180100IS2_JS2_EEEvPT_DpOT0_, symObjAddr: 0x4464, symBinAddr: 0x1000073FC, symSize: 0x28 }
  - { offset: 0xFF9B, size: 0x8, addend: 0x0, symName: __ZNKSt3__15dequeINS_4pairIiiEENS_9allocatorIS2_EEE23__annotate_shrink_frontB8ne180100Emm, symObjAddr: 0x44A0, symBinAddr: 0x100007438, symSize: 0x18 }
  - { offset: 0xFFDE, size: 0x8, addend: 0x0, symName: __ZNSt3__15dequeINS_4pairIiiEENS_9allocatorIS2_EEE26__maybe_remove_front_spareB8ne180100Eb, symObjAddr: 0x44B8, symBinAddr: 0x100007450, symSize: 0xEC }
  - { offset: 0x10012, size: 0x8, addend: 0x0, symName: __ZNKSt3__15dequeINS_4pairIiiEENS_9allocatorIS2_EEE20__front_spare_blocksB8ne180100Ev, symObjAddr: 0x45A4, symBinAddr: 0x10000753C, symSize: 0x2C }
  - { offset: 0x10037, size: 0x8, addend: 0x0, symName: __ZNSt3__16vectorIbNS_9allocatorIbEEEC2Em, symObjAddr: 0x45D0, symBinAddr: 0x100007568, symSize: 0x88 }
  - { offset: 0x10070, size: 0x8, addend: 0x0, symName: __ZNSt3__117__compressed_pairImNS_9allocatorImEEEC1B8ne180100IiNS_18__default_init_tagEEEOT_OT0_, symObjAddr: 0x4658, symBinAddr: 0x1000075F0, symSize: 0x3C }
  - { offset: 0x100C7, size: 0x8, addend: 0x0, symName: __ZNSt3__16vectorIbNS_9allocatorIbEEE11__vallocateB8ne180100Em, symObjAddr: 0x4694, symBinAddr: 0x10000762C, symSize: 0xA0 }
  - { offset: 0x1010A, size: 0x8, addend: 0x0, symName: __ZNSt3__16vectorIbNS_9allocatorIbEEE18__construct_at_endB8ne180100Emb, symObjAddr: 0x4734, symBinAddr: 0x1000076CC, symSize: 0x108 }
  - { offset: 0x1015D, size: 0x8, addend: 0x0, symName: __ZNSt3__117__compressed_pairImNS_9allocatorImEEEC2B8ne180100IiNS_18__default_init_tagEEEOT_OT0_, symObjAddr: 0x483C, symBinAddr: 0x1000077D4, symSize: 0x40 }
  - { offset: 0x101B3, size: 0x8, addend: 0x0, symName: __ZNSt3__122__compressed_pair_elemINS_9allocatorImEELi1ELb1EEC2B8ne180100ENS_18__default_init_tagE, symObjAddr: 0x487C, symBinAddr: 0x100007814, symSize: 0x2C }
  - { offset: 0x101E5, size: 0x8, addend: 0x0, symName: __ZNSt3__19allocatorImEC2B8ne180100Ev, symObjAddr: 0x48A8, symBinAddr: 0x100007840, symSize: 0x2C }
  - { offset: 0x1020E, size: 0x8, addend: 0x0, symName: __ZNSt3__116__non_trivial_ifILb1ENS_9allocatorImEEEC2B8ne180100Ev, symObjAddr: 0x48D4, symBinAddr: 0x10000786C, symSize: 0x14 }
  - { offset: 0x10237, size: 0x8, addend: 0x0, symName: __ZNKSt3__16vectorIbNS_9allocatorIbEEE8max_sizeEv, symObjAddr: 0x48E8, symBinAddr: 0x100007880, symSize: 0x7C }
  - { offset: 0x1027C, size: 0x8, addend: 0x0, symName: __ZNKSt3__16vectorIbNS_9allocatorIbEEE20__throw_length_errorB8ne180100Ev, symObjAddr: 0x4964, symBinAddr: 0x1000078FC, symSize: 0x1C }
  - { offset: 0x102A1, size: 0x8, addend: 0x0, symName: __ZNSt3__16vectorIbNS_9allocatorIbEEE7__allocB8ne180100Ev, symObjAddr: 0x49C0, symBinAddr: 0x100007958, symSize: 0x28 }
  - { offset: 0x102C6, size: 0x8, addend: 0x0, symName: __ZNSt3__16vectorIbNS_9allocatorIbEEE26__external_cap_to_internalB8ne180100Em, symObjAddr: 0x49E8, symBinAddr: 0x100007980, symSize: 0x24 }
  - { offset: 0x102EA, size: 0x8, addend: 0x0, symName: __ZNSt3__16vectorIbNS_9allocatorIbEEE5__capB8ne180100Ev, symObjAddr: 0x4A0C, symBinAddr: 0x1000079A4, symSize: 0x28 }
  - { offset: 0x10319, size: 0x8, addend: 0x0, symName: __ZNSt3__116allocator_traitsINS_9allocatorImEEE8max_sizeB8ne180100IS2_vEEmRKS2_, symObjAddr: 0x4A34, symBinAddr: 0x1000079CC, symSize: 0x24 }
  - { offset: 0x10347, size: 0x8, addend: 0x0, symName: __ZNKSt3__16vectorIbNS_9allocatorIbEEE7__allocB8ne180100Ev, symObjAddr: 0x4A58, symBinAddr: 0x1000079F0, symSize: 0x28 }
  - { offset: 0x1036C, size: 0x8, addend: 0x0, symName: __ZNSt3__114numeric_limitsImE3maxB8ne180100Ev, symObjAddr: 0x4A80, symBinAddr: 0x100007A18, symSize: 0x14 }
  - { offset: 0x10380, size: 0x8, addend: 0x0, symName: __ZNSt3__16vectorIbNS_9allocatorIbEEE26__internal_cap_to_externalB8ne180100Em, symObjAddr: 0x4A94, symBinAddr: 0x100007A2C, symSize: 0x18 }
  - { offset: 0x103A4, size: 0x8, addend: 0x0, symName: __ZNKSt3__19allocatorImE8max_sizeB8ne180100Ev, symObjAddr: 0x4AAC, symBinAddr: 0x100007A44, symSize: 0x14 }
  - { offset: 0x103C9, size: 0x8, addend: 0x0, symName: __ZNKSt3__117__compressed_pairImNS_9allocatorImEEE6secondB8ne180100Ev, symObjAddr: 0x4AC0, symBinAddr: 0x100007A58, symSize: 0x24 }
  - { offset: 0x103EE, size: 0x8, addend: 0x0, symName: __ZNKSt3__122__compressed_pair_elemINS_9allocatorImEELi1ELb1EE5__getB8ne180100Ev, symObjAddr: 0x4AE4, symBinAddr: 0x100007A7C, symSize: 0x14 }
  - { offset: 0x10413, size: 0x8, addend: 0x0, symName: __ZNSt3__123__libcpp_numeric_limitsImLb1EE3maxB8ne180100Ev, symObjAddr: 0x4AF8, symBinAddr: 0x100007A90, symSize: 0x8 }
  - { offset: 0x10426, size: 0x8, addend: 0x0, symName: __ZNSt12length_errorC1B8ne180100EPKc, symObjAddr: 0x4B64, symBinAddr: 0x100007AFC, symSize: 0x34 }
  - { offset: 0x1045C, size: 0x8, addend: 0x0, symName: __ZNSt12length_errorC2B8ne180100EPKc, symObjAddr: 0x4B98, symBinAddr: 0x100007B30, symSize: 0x44 }
  - { offset: 0x10493, size: 0x8, addend: 0x0, symName: __ZNSt3__19allocatorImE8allocateB8ne180100Em, symObjAddr: 0x4BDC, symBinAddr: 0x100007B74, symSize: 0x58 }
  - { offset: 0x104C6, size: 0x8, addend: 0x0, symName: __ZNSt3__117__compressed_pairImNS_9allocatorImEEE6secondB8ne180100Ev, symObjAddr: 0x4C34, symBinAddr: 0x100007BCC, symSize: 0x24 }
  - { offset: 0x104EB, size: 0x8, addend: 0x0, symName: __ZNSt3__122__compressed_pair_elemINS_9allocatorImEELi1ELb1EE5__getB8ne180100Ev, symObjAddr: 0x4C58, symBinAddr: 0x100007BF0, symSize: 0x14 }
  - { offset: 0x10510, size: 0x8, addend: 0x0, symName: __ZNSt3__117__compressed_pairImNS_9allocatorImEEE5firstB8ne180100Ev, symObjAddr: 0x4C6C, symBinAddr: 0x100007C04, symSize: 0x24 }
  - { offset: 0x10535, size: 0x8, addend: 0x0, symName: __ZNSt3__16vectorIbNS_9allocatorIbEEE11__make_iterB8ne180100Em, symObjAddr: 0x4D24, symBinAddr: 0x100007CBC, symSize: 0x64 }
  - { offset: 0x10568, size: 0x8, addend: 0x0, symName: __ZNSt3__114__bit_iteratorINS_6vectorIbNS_9allocatorIbEEEELb0ELm0EEC1B8ne180100ERKS5_, symObjAddr: 0x4EEC, symBinAddr: 0x100007E84, symSize: 0x34 }
  - { offset: 0x105A0, size: 0x8, addend: 0x0, symName: __ZNSt3__114__bit_iteratorINS_6vectorIbNS_9allocatorIbEEEELb0ELm0EEC2B8ne180100ERKS5_, symObjAddr: 0x51D0, symBinAddr: 0x100008168, symSize: 0x30 }
  - { offset: 0x105D7, size: 0x8, addend: 0x0, symName: __ZNSt3__114__bit_iteratorINS_6vectorIbNS_9allocatorIbEEEELb0ELm0EEC1B8ne180100EPmj, symObjAddr: 0x5200, symBinAddr: 0x100008198, symSize: 0x3C }
  - { offset: 0x1061E, size: 0x8, addend: 0x0, symName: __ZNSt3__114__bit_iteratorINS_6vectorIbNS_9allocatorIbEEEELb0ELm0EEC2B8ne180100EPmj, symObjAddr: 0x523C, symBinAddr: 0x1000081D4, symSize: 0x2C }
  - { offset: 0x10664, size: 0x8, addend: 0x0, symName: __ZNSt3__16vectorIbNS_9allocatorIbEEED2B8ne180100Ev, symObjAddr: 0x5268, symBinAddr: 0x100008200, symSize: 0x44 }
  - { offset: 0x1068C, size: 0x8, addend: 0x0, symName: __ZNSt3__16vectorIbNS_9allocatorIbEEE16__destroy_vectorC1B8ne180100ERS3_, symObjAddr: 0x52AC, symBinAddr: 0x100008244, symSize: 0x34 }
  - { offset: 0x106C4, size: 0x8, addend: 0x0, symName: __ZNSt3__16vectorIbNS_9allocatorIbEEE16__destroy_vectorclB8ne180100Ev, symObjAddr: 0x52E0, symBinAddr: 0x100008278, symSize: 0x7C }
  - { offset: 0x106E9, size: 0x8, addend: 0x0, symName: __ZNSt3__16vectorIbNS_9allocatorIbEEE16__destroy_vectorC2B8ne180100ERS3_, symObjAddr: 0x535C, symBinAddr: 0x1000082F4, symSize: 0x20 }
  - { offset: 0x10721, size: 0x8, addend: 0x0, symName: __ZNSt3__116allocator_traitsINS_9allocatorImEEE10deallocateB8ne180100ERS2_Pmm, symObjAddr: 0x537C, symBinAddr: 0x100008314, symSize: 0x34 }
  - { offset: 0x10763, size: 0x8, addend: 0x0, symName: __ZNSt3__19allocatorImE10deallocateB8ne180100EPmm, symObjAddr: 0x53B0, symBinAddr: 0x100008348, symSize: 0x40 }
  - { offset: 0x107A4, size: 0x8, addend: 0x0, symName: __ZNSt3__16vectorINS0_IbNS_9allocatorIbEEEENS1_IS3_EEEC2EmRKS3_, symObjAddr: 0x53F0, symBinAddr: 0x100008388, symSize: 0xDC }
  - { offset: 0x10801, size: 0x8, addend: 0x0, symName: __ZNSt3__117__compressed_pairIPNS_6vectorIbNS_9allocatorIbEEEENS2_IS4_EEEC1B8ne180100IDnNS_18__default_init_tagEEEOT_OT0_, symObjAddr: 0x54CC, symBinAddr: 0x100008464, symSize: 0x3C }
  - { offset: 0x10857, size: 0x8, addend: 0x0, symName: __ZNSt3__16vectorINS0_IbNS_9allocatorIbEEEENS1_IS3_EEE16__destroy_vectorC1B8ne180100ERS5_, symObjAddr: 0x5548, symBinAddr: 0x1000084E0, symSize: 0x34 }
  - { offset: 0x1088F, size: 0x8, addend: 0x0, symName: __ZNSt3__16vectorINS0_IbNS_9allocatorIbEEEENS1_IS3_EEE11__vallocateB8ne180100Em, symObjAddr: 0x557C, symBinAddr: 0x100008514, symSize: 0xB4 }
  - { offset: 0x108D2, size: 0x8, addend: 0x0, symName: __ZNSt3__16vectorINS0_IbNS_9allocatorIbEEEENS1_IS3_EEE18__construct_at_endEmRKS3_, symObjAddr: 0x5630, symBinAddr: 0x1000085C8, symSize: 0xD0 }
  - { offset: 0x10952, size: 0x8, addend: 0x0, symName: __ZNSt3__128__exception_guard_exceptionsINS_6vectorINS1_IbNS_9allocatorIbEEEENS2_IS4_EEE16__destroy_vectorEE10__completeB8ne180100Ev, symObjAddr: 0x5700, symBinAddr: 0x100008698, symSize: 0x1C }
  - { offset: 0x10976, size: 0x8, addend: 0x0, symName: __ZNSt3__128__exception_guard_exceptionsINS_6vectorINS1_IbNS_9allocatorIbEEEENS2_IS4_EEE16__destroy_vectorEED1B8ne180100Ev, symObjAddr: 0x571C, symBinAddr: 0x1000086B4, symSize: 0x2C }
  - { offset: 0x1099E, size: 0x8, addend: 0x0, symName: __ZNSt3__117__compressed_pairIPNS_6vectorIbNS_9allocatorIbEEEENS2_IS4_EEEC2B8ne180100IDnNS_18__default_init_tagEEEOT_OT0_, symObjAddr: 0x5748, symBinAddr: 0x1000086E0, symSize: 0x40 }
  - { offset: 0x109F5, size: 0x8, addend: 0x0, symName: __ZNSt3__122__compressed_pair_elemIPNS_6vectorIbNS_9allocatorIbEEEELi0ELb0EEC2B8ne180100IDnvEEOT_, symObjAddr: 0x5788, symBinAddr: 0x100008720, symSize: 0x1C }
  - { offset: 0x10A35, size: 0x8, addend: 0x0, symName: __ZNSt3__122__compressed_pair_elemINS_9allocatorINS_6vectorIbNS1_IbEEEEEELi1ELb1EEC2B8ne180100ENS_18__default_init_tagE, symObjAddr: 0x57A4, symBinAddr: 0x10000873C, symSize: 0x2C }
  - { offset: 0x10A67, size: 0x8, addend: 0x0, symName: __ZNSt3__19allocatorINS_6vectorIbNS0_IbEEEEEC2B8ne180100Ev, symObjAddr: 0x57D0, symBinAddr: 0x100008768, symSize: 0x2C }
  - { offset: 0x10A90, size: 0x8, addend: 0x0, symName: __ZNSt3__116__non_trivial_ifILb1ENS_9allocatorINS_6vectorIbNS1_IbEEEEEEEC2B8ne180100Ev, symObjAddr: 0x57FC, symBinAddr: 0x100008794, symSize: 0x14 }
  - { offset: 0x10AB8, size: 0x8, addend: 0x0, symName: __ZNSt3__128__exception_guard_exceptionsINS_6vectorINS1_IbNS_9allocatorIbEEEENS2_IS4_EEE16__destroy_vectorEEC1B8ne180100ES7_, symObjAddr: 0x5810, symBinAddr: 0x1000087A8, symSize: 0x34 }
  - { offset: 0x10AEF, size: 0x8, addend: 0x0, symName: __ZNSt3__128__exception_guard_exceptionsINS_6vectorINS1_IbNS_9allocatorIbEEEENS2_IS4_EEE16__destroy_vectorEEC2B8ne180100ES7_, symObjAddr: 0x5844, symBinAddr: 0x1000087DC, symSize: 0x24 }
  - { offset: 0x10B26, size: 0x8, addend: 0x0, symName: __ZNSt3__16vectorINS0_IbNS_9allocatorIbEEEENS1_IS3_EEE16__destroy_vectorC2B8ne180100ERS5_, symObjAddr: 0x5868, symBinAddr: 0x100008800, symSize: 0x20 }
  - { offset: 0x10B5E, size: 0x8, addend: 0x0, symName: __ZNKSt3__16vectorINS0_IbNS_9allocatorIbEEEENS1_IS3_EEE8max_sizeEv, symObjAddr: 0x5888, symBinAddr: 0x100008820, symSize: 0x60 }
  - { offset: 0x10B85, size: 0x8, addend: 0x0, symName: __ZNKSt3__16vectorINS0_IbNS_9allocatorIbEEEENS1_IS3_EEE20__throw_length_errorB8ne180100Ev, symObjAddr: 0x58E8, symBinAddr: 0x100008880, symSize: 0x1C }
  - { offset: 0x10BAA, size: 0x8, addend: 0x0, symName: __ZNSt3__16vectorINS0_IbNS_9allocatorIbEEEENS1_IS3_EEE7__allocB8ne180100Ev, symObjAddr: 0x5944, symBinAddr: 0x1000088DC, symSize: 0x28 }
  - { offset: 0x10BCF, size: 0x8, addend: 0x0, symName: __ZNSt3__16vectorINS0_IbNS_9allocatorIbEEEENS1_IS3_EEE9__end_capB8ne180100Ev, symObjAddr: 0x596C, symBinAddr: 0x100008904, symSize: 0x28 }
  - { offset: 0x10BF4, size: 0x8, addend: 0x0, symName: __ZNKSt3__16vectorINS0_IbNS_9allocatorIbEEEENS1_IS3_EEE14__annotate_newB8ne180100Em, symObjAddr: 0x5994, symBinAddr: 0x10000892C, symSize: 0x14 }
  - { offset: 0x10C32, size: 0x8, addend: 0x0, symName: __ZNSt3__116allocator_traitsINS_9allocatorINS_6vectorIbNS1_IbEEEEEEE8max_sizeB8ne180100IS5_vEEmRKS5_, symObjAddr: 0x59A8, symBinAddr: 0x100008940, symSize: 0x24 }
  - { offset: 0x10C60, size: 0x8, addend: 0x0, symName: __ZNKSt3__16vectorINS0_IbNS_9allocatorIbEEEENS1_IS3_EEE7__allocB8ne180100Ev, symObjAddr: 0x59CC, symBinAddr: 0x100008964, symSize: 0x28 }
  - { offset: 0x10C85, size: 0x8, addend: 0x0, symName: __ZNSt3__114numeric_limitsIlE3maxB8ne180100Ev, symObjAddr: 0x59F4, symBinAddr: 0x10000898C, symSize: 0x14 }
  - { offset: 0x10C99, size: 0x8, addend: 0x0, symName: __ZNKSt3__19allocatorINS_6vectorIbNS0_IbEEEEE8max_sizeB8ne180100Ev, symObjAddr: 0x5A08, symBinAddr: 0x1000089A0, symSize: 0x18 }
  - { offset: 0x10CBE, size: 0x8, addend: 0x0, symName: __ZNKSt3__117__compressed_pairIPNS_6vectorIbNS_9allocatorIbEEEENS2_IS4_EEE6secondB8ne180100Ev, symObjAddr: 0x5A20, symBinAddr: 0x1000089B8, symSize: 0x24 }
  - { offset: 0x10CE3, size: 0x8, addend: 0x0, symName: __ZNKSt3__122__compressed_pair_elemINS_9allocatorINS_6vectorIbNS1_IbEEEEEELi1ELb1EE5__getB8ne180100Ev, symObjAddr: 0x5A44, symBinAddr: 0x1000089DC, symSize: 0x14 }
  - { offset: 0x10D08, size: 0x8, addend: 0x0, symName: __ZNSt3__123__libcpp_numeric_limitsIlLb1EE3maxB8ne180100Ev, symObjAddr: 0x5A58, symBinAddr: 0x1000089F0, symSize: 0x8 }
  - { offset: 0x10D1C, size: 0x8, addend: 0x0, symName: __ZNSt3__19allocatorINS_6vectorIbNS0_IbEEEEE8allocateB8ne180100Em, symObjAddr: 0x5A60, symBinAddr: 0x1000089F8, symSize: 0x5C }
  - { offset: 0x10D4F, size: 0x8, addend: 0x0, symName: __ZNSt3__117__compressed_pairIPNS_6vectorIbNS_9allocatorIbEEEENS2_IS4_EEE6secondB8ne180100Ev, symObjAddr: 0x5ABC, symBinAddr: 0x100008A54, symSize: 0x24 }
  - { offset: 0x10D74, size: 0x8, addend: 0x0, symName: __ZNSt3__122__compressed_pair_elemINS_9allocatorINS_6vectorIbNS1_IbEEEEEELi1ELb1EE5__getB8ne180100Ev, symObjAddr: 0x5AE0, symBinAddr: 0x100008A78, symSize: 0x14 }
  - { offset: 0x10D99, size: 0x8, addend: 0x0, symName: __ZNSt3__117__compressed_pairIPNS_6vectorIbNS_9allocatorIbEEEENS2_IS4_EEE5firstB8ne180100Ev, symObjAddr: 0x5AF4, symBinAddr: 0x100008A8C, symSize: 0x24 }
  - { offset: 0x10DBE, size: 0x8, addend: 0x0, symName: __ZNSt3__122__compressed_pair_elemIPNS_6vectorIbNS_9allocatorIbEEEELi0ELb0EE5__getB8ne180100Ev, symObjAddr: 0x5B18, symBinAddr: 0x100008AB0, symSize: 0x14 }
  - { offset: 0x10DFB, size: 0x8, addend: 0x0, symName: __ZNSt3__16vectorINS0_IbNS_9allocatorIbEEEENS1_IS3_EEE21_ConstructTransactionC1B8ne180100ERS5_m, symObjAddr: 0x5B2C, symBinAddr: 0x100008AC4, symSize: 0x3C }
  - { offset: 0x10E42, size: 0x8, addend: 0x0, symName: __ZNSt3__116allocator_traitsINS_9allocatorINS_6vectorIbNS1_IbEEEEEEE9constructB8ne180100IS4_JRKS4_EvEEvRS5_PT_DpOT0_, symObjAddr: 0x5B68, symBinAddr: 0x100008B00, symSize: 0x34 }
  - { offset: 0x10E98, size: 0x8, addend: 0x0, symName: __ZNSt3__16vectorINS0_IbNS_9allocatorIbEEEENS1_IS3_EEE21_ConstructTransactionD1B8ne180100Ev, symObjAddr: 0x5BB0, symBinAddr: 0x100008B48, symSize: 0x2C }
  - { offset: 0x10EC1, size: 0x8, addend: 0x0, symName: __ZNSt3__16vectorINS0_IbNS_9allocatorIbEEEENS1_IS3_EEE21_ConstructTransactionC2B8ne180100ERS5_m, symObjAddr: 0x5BDC, symBinAddr: 0x100008B74, symSize: 0x4C }
  - { offset: 0x10F08, size: 0x8, addend: 0x0, symName: __ZNSt3__19allocatorINS_6vectorIbNS0_IbEEEEE9constructB8ne180100IS3_JRKS3_EEEvPT_DpOT0_, symObjAddr: 0x5C28, symBinAddr: 0x100008BC0, symSize: 0x30 }
  - { offset: 0x10F5D, size: 0x8, addend: 0x0, symName: __ZNSt3__16vectorIbNS_9allocatorIbEEEC1ERKS3_, symObjAddr: 0x5C58, symBinAddr: 0x100008BF0, symSize: 0x34 }
  - { offset: 0x10F97, size: 0x8, addend: 0x0, symName: __ZNSt3__16vectorIbNS_9allocatorIbEEEC2ERKS3_, symObjAddr: 0x5C8C, symBinAddr: 0x100008C24, symSize: 0xDC }
  - { offset: 0x10FD1, size: 0x8, addend: 0x0, symName: __ZNSt3__116allocator_traitsINS_9allocatorImEEE37select_on_container_copy_constructionB8ne180100IS2_vvEES2_RKS2_, symObjAddr: 0x5D68, symBinAddr: 0x100008D00, symSize: 0x10 }
  - { offset: 0x11004, size: 0x8, addend: 0x0, symName: __ZNSt3__117__compressed_pairImNS_9allocatorImEEEC1B8ne180100IiS2_EEOT_OT0_, symObjAddr: 0x5D78, symBinAddr: 0x100008D10, symSize: 0x3C }
  - { offset: 0x1105B, size: 0x8, addend: 0x0, symName: __ZNKSt3__16vectorIbNS_9allocatorIbEEE4sizeB8ne180100Ev, symObjAddr: 0x5DB4, symBinAddr: 0x100008D4C, symSize: 0x18 }
  - { offset: 0x11080, size: 0x8, addend: 0x0, symName: __ZNSt3__16vectorIbNS_9allocatorIbEEE18__construct_at_endINS_14__bit_iteratorIS3_Lb1ELm0EEES6_EEvT_T0_m, symObjAddr: 0x5DCC, symBinAddr: 0x100008D64, symSize: 0x124 }
  - { offset: 0x110F5, size: 0x8, addend: 0x0, symName: __ZNKSt3__16vectorIbNS_9allocatorIbEEE5beginB8ne180100Ev, symObjAddr: 0x5EF0, symBinAddr: 0x100008E88, symSize: 0x38 }
  - { offset: 0x1111A, size: 0x8, addend: 0x0, symName: __ZNKSt3__16vectorIbNS_9allocatorIbEEE3endB8ne180100Ev, symObjAddr: 0x5F28, symBinAddr: 0x100008EC0, symSize: 0x38 }
  - { offset: 0x1113E, size: 0x8, addend: 0x0, symName: __ZNSt3__117__compressed_pairImNS_9allocatorImEEEC2B8ne180100IiS2_EEOT_OT0_, symObjAddr: 0x5F60, symBinAddr: 0x100008EF8, symSize: 0x44 }
  - { offset: 0x11195, size: 0x8, addend: 0x0, symName: __ZNSt3__122__compressed_pair_elemINS_9allocatorImEELi1ELb1EEC2B8ne180100IS2_vEEOT_, symObjAddr: 0x5FA4, symBinAddr: 0x100008F3C, symSize: 0x18 }
  - { offset: 0x111F9, size: 0x8, addend: 0x0, symName: __ZNKSt3__111__copy_loopINS_17_ClassicAlgPolicyEEclB8ne180100INS_14__bit_iteratorINS_6vectorIbNS_9allocatorIbEEEELb1ELm0EEES9_NS4_IS8_Lb0ELm0EEEEENS_4pairIT_T1_EESC_T0_SD_, symObjAddr: 0x6288, symBinAddr: 0x100009220, symSize: 0xC4 }
  - { offset: 0x11281, size: 0x8, addend: 0x0, symName: __ZNSt3__14pairINS_14__bit_iteratorINS_6vectorIbNS_9allocatorIbEEEELb1ELm0EEES6_EC1B8ne180100IS6_S6_Li0EEEOT_OT0_, symObjAddr: 0x651C, symBinAddr: 0x1000094B4, symSize: 0x3C }
  - { offset: 0x112DE, size: 0x8, addend: 0x0, symName: __ZNSt3__14pairINS_14__bit_iteratorINS_6vectorIbNS_9allocatorIbEEEELb1ELm0EEES6_EC2B8ne180100IS6_S6_Li0EEEOT_OT0_, symObjAddr: 0x6558, symBinAddr: 0x1000094F0, symSize: 0x34 }
  - { offset: 0x1133B, size: 0x8, addend: 0x0, symName: __ZNSt3__118__unwrap_iter_implINS_14__bit_iteratorINS_6vectorIbNS_9allocatorIbEEEELb1ELm0EEELb0EE8__unwrapB8ne180100ES6_, symObjAddr: 0x658C, symBinAddr: 0x100009524, symSize: 0x24 }
  - { offset: 0x1135E, size: 0x8, addend: 0x0, symName: __ZNKSt3__114__bit_iteratorINS_6vectorIbNS_9allocatorIbEEEELb1ELm0EEdeB8ne180100Ev, symObjAddr: 0x65E4, symBinAddr: 0x10000957C, symSize: 0x44 }
  - { offset: 0x11383, size: 0x8, addend: 0x0, symName: __ZNKSt3__121__bit_const_referenceINS_6vectorIbNS_9allocatorIbEEEEEcvbB8ne180100Ev, symObjAddr: 0x6628, symBinAddr: 0x1000095C0, symSize: 0x2C }
  - { offset: 0x113A8, size: 0x8, addend: 0x0, symName: __ZNKSt3__114__bit_iteratorINS_6vectorIbNS_9allocatorIbEEEELb0ELm0EEdeB8ne180100Ev, symObjAddr: 0x6654, symBinAddr: 0x1000095EC, symSize: 0x44 }
  - { offset: 0x113CD, size: 0x8, addend: 0x0, symName: __ZNSt3__114__bit_iteratorINS_6vectorIbNS_9allocatorIbEEEELb1ELm0EEppB8ne180100Ev, symObjAddr: 0x6698, symBinAddr: 0x100009630, symSize: 0x5C }
  - { offset: 0x113F2, size: 0x8, addend: 0x0, symName: __ZNSt3__114__bit_iteratorINS_6vectorIbNS_9allocatorIbEEEELb0ELm0EEppB8ne180100Ev, symObjAddr: 0x66F4, symBinAddr: 0x10000968C, symSize: 0x5C }
  - { offset: 0x11416, size: 0x8, addend: 0x0, symName: __ZNSt3__121__bit_const_referenceINS_6vectorIbNS_9allocatorIbEEEEEC1B8ne180100EPKmm, symObjAddr: 0x67B4, symBinAddr: 0x10000974C, symSize: 0x3C }
  - { offset: 0x1145B, size: 0x8, addend: 0x0, symName: __ZNSt3__121__bit_const_referenceINS_6vectorIbNS_9allocatorIbEEEEEC2B8ne180100EPKmm, symObjAddr: 0x67F0, symBinAddr: 0x100009788, symSize: 0x2C }
  - { offset: 0x114A0, size: 0x8, addend: 0x0, symName: __ZNSt3__118__unwrap_iter_implINS_14__bit_iteratorINS_6vectorIbNS_9allocatorIbEEEELb0ELm0EEELb0EE8__unwrapB8ne180100ES6_, symObjAddr: 0x681C, symBinAddr: 0x1000097B4, symSize: 0x38 }
  - { offset: 0x114C8, size: 0x8, addend: 0x0, symName: __ZNSt3__14pairINS_14__bit_iteratorINS_6vectorIbNS_9allocatorIbEEEELb1ELm0EEENS1_IS5_Lb0ELm0EEEEC1B8ne180100IS6_S7_Li0EEEOT_OT0_, symObjAddr: 0x6854, symBinAddr: 0x1000097EC, symSize: 0x3C }
  - { offset: 0x11524, size: 0x8, addend: 0x0, symName: __ZNSt3__14pairINS_14__bit_iteratorINS_6vectorIbNS_9allocatorIbEEEELb1ELm0EEENS1_IS5_Lb0ELm0EEEEC2B8ne180100IS6_S7_Li0EEEOT_OT0_, symObjAddr: 0x6890, symBinAddr: 0x100009828, symSize: 0x48 }
  - { offset: 0x11581, size: 0x8, addend: 0x0, symName: __ZNSt3__118__unwrap_iter_implINS_14__bit_iteratorINS_6vectorIbNS_9allocatorIbEEEELb1ELm0EEELb0EE8__rewrapB8ne180100ES6_S6_, symObjAddr: 0x694C, symBinAddr: 0x1000098E4, symSize: 0x2C }
  - { offset: 0x115AE, size: 0x8, addend: 0x0, symName: __ZNSt3__118__unwrap_iter_implINS_14__bit_iteratorINS_6vectorIbNS_9allocatorIbEEEELb0ELm0EEELb0EE8__rewrapB8ne180100ES6_S6_, symObjAddr: 0x6978, symBinAddr: 0x100009910, symSize: 0x3C }
  - { offset: 0x115DD, size: 0x8, addend: 0x0, symName: __ZNKSt3__16vectorIbNS_9allocatorIbEEE11__make_iterB8ne180100Em, symObjAddr: 0x69B4, symBinAddr: 0x10000994C, symSize: 0x5C }
  - { offset: 0x11610, size: 0x8, addend: 0x0, symName: __ZNSt3__114__bit_iteratorINS_6vectorIbNS_9allocatorIbEEEELb1ELm0EEC1B8ne180100EPKmj, symObjAddr: 0x6A10, symBinAddr: 0x1000099A8, symSize: 0x3C }
  - { offset: 0x11657, size: 0x8, addend: 0x0, symName: __ZNSt3__114__bit_iteratorINS_6vectorIbNS_9allocatorIbEEEELb1ELm0EEC2B8ne180100EPKmj, symObjAddr: 0x6A4C, symBinAddr: 0x1000099E4, symSize: 0x2C }
  - { offset: 0x1169E, size: 0x8, addend: 0x0, symName: __ZNSt3__16vectorINS0_IbNS_9allocatorIbEEEENS1_IS3_EEE21_ConstructTransactionD2B8ne180100Ev, symObjAddr: 0x6A78, symBinAddr: 0x100009A10, symSize: 0x20 }
  - { offset: 0x116C6, size: 0x8, addend: 0x0, symName: __ZNSt3__128__exception_guard_exceptionsINS_6vectorINS1_IbNS_9allocatorIbEEEENS2_IS4_EEE16__destroy_vectorEED2B8ne180100Ev, symObjAddr: 0x6A98, symBinAddr: 0x100009A30, symSize: 0x50 }
  - { offset: 0x116EF, size: 0x8, addend: 0x0, symName: __ZNSt3__16vectorINS0_IbNS_9allocatorIbEEEENS1_IS3_EEE16__destroy_vectorclB8ne180100Ev, symObjAddr: 0x6AE8, symBinAddr: 0x100009A80, symSize: 0x90 }
  - { offset: 0x11714, size: 0x8, addend: 0x0, symName: __ZNSt3__16vectorINS0_IbNS_9allocatorIbEEEENS1_IS3_EEE7__clearB8ne180100Ev, symObjAddr: 0x6B78, symBinAddr: 0x100009B10, symSize: 0x28 }
  - { offset: 0x11739, size: 0x8, addend: 0x0, symName: __ZNKSt3__16vectorINS0_IbNS_9allocatorIbEEEENS1_IS3_EEE17__annotate_deleteB8ne180100Ev, symObjAddr: 0x6BA0, symBinAddr: 0x100009B38, symSize: 0x10 }
  - { offset: 0x1175E, size: 0x8, addend: 0x0, symName: __ZNSt3__116allocator_traitsINS_9allocatorINS_6vectorIbNS1_IbEEEEEEE10deallocateB8ne180100ERS5_PS4_m, symObjAddr: 0x6BB0, symBinAddr: 0x100009B48, symSize: 0x34 }
  - { offset: 0x117A0, size: 0x8, addend: 0x0, symName: __ZNKSt3__16vectorINS0_IbNS_9allocatorIbEEEENS1_IS3_EEE8capacityB8ne180100Ev, symObjAddr: 0x6BE4, symBinAddr: 0x100009B7C, symSize: 0x40 }
  - { offset: 0x117C5, size: 0x8, addend: 0x0, symName: __ZNSt3__16vectorINS0_IbNS_9allocatorIbEEEENS1_IS3_EEE22__base_destruct_at_endB8ne180100EPS3_, symObjAddr: 0x6C24, symBinAddr: 0x100009BBC, symSize: 0x8C }
  - { offset: 0x11808, size: 0x8, addend: 0x0, symName: __ZNSt3__116allocator_traitsINS_9allocatorINS_6vectorIbNS1_IbEEEEEEE7destroyB8ne180100IS4_vEEvRS5_PT_, symObjAddr: 0x6CB0, symBinAddr: 0x100009C48, symSize: 0x2C }
  - { offset: 0x11845, size: 0x8, addend: 0x0, symName: __ZNSt3__19allocatorINS_6vectorIbNS0_IbEEEEE7destroyB8ne180100EPS3_, symObjAddr: 0x6CDC, symBinAddr: 0x100009C74, symSize: 0x28 }
  - { offset: 0x11878, size: 0x8, addend: 0x0, symName: __ZNSt3__19allocatorINS_6vectorIbNS0_IbEEEEE10deallocateB8ne180100EPS3_m, symObjAddr: 0x6D04, symBinAddr: 0x100009C9C, symSize: 0x44 }
  - { offset: 0x118B9, size: 0x8, addend: 0x0, symName: __ZNKSt3__16vectorINS0_IbNS_9allocatorIbEEEENS1_IS3_EEE9__end_capB8ne180100Ev, symObjAddr: 0x6D48, symBinAddr: 0x100009CE0, symSize: 0x28 }
  - { offset: 0x118DE, size: 0x8, addend: 0x0, symName: __ZNKSt3__117__compressed_pairIPNS_6vectorIbNS_9allocatorIbEEEENS2_IS4_EEE5firstB8ne180100Ev, symObjAddr: 0x6D70, symBinAddr: 0x100009D08, symSize: 0x24 }
  - { offset: 0x11903, size: 0x8, addend: 0x0, symName: __ZNKSt3__122__compressed_pair_elemIPNS_6vectorIbNS_9allocatorIbEEEELi0ELb0EE5__getB8ne180100Ev, symObjAddr: 0x6D94, symBinAddr: 0x100009D2C, symSize: 0x14 }
  - { offset: 0x11927, size: 0x8, addend: 0x0, symName: __ZNSt3__16vectorINS0_IbNS_9allocatorIbEEEENS1_IS3_EEED2B8ne180100Ev, symObjAddr: 0x6DA8, symBinAddr: 0x100009D40, symSize: 0x40 }
  - { offset: 0x11950, size: 0x8, addend: 0x0, symName: __ZNKSt3__16vectorIbNS_9allocatorIbEEE8capacityB8ne180100Ev, symObjAddr: 0x6DE8, symBinAddr: 0x100009D80, symSize: 0x2C }
  - { offset: 0x11975, size: 0x8, addend: 0x0, symName: __ZNSt3__16vectorIbNS_9allocatorIbEEE7reserveEm, symObjAddr: 0x6E14, symBinAddr: 0x100009DAC, symSize: 0x118 }
  - { offset: 0x119C0, size: 0x8, addend: 0x0, symName: __ZNKSt3__16vectorIbNS_9allocatorIbEEE11__recommendB8ne180100Em, symObjAddr: 0x6F2C, symBinAddr: 0x100009EC4, symSize: 0xCC }
  - { offset: 0x11A14, size: 0x8, addend: 0x0, symName: __ZNSt3__16vectorIbNS_9allocatorIbEEE4backB8ne180100Ev, symObjAddr: 0x6FF8, symBinAddr: 0x100009F90, symSize: 0x3C }
  - { offset: 0x11A39, size: 0x8, addend: 0x0, symName: __ZNKSt3__16vectorIbNS_9allocatorIbEEE5__capB8ne180100Ev, symObjAddr: 0x7034, symBinAddr: 0x100009FCC, symSize: 0x28 }
  - { offset: 0x11A5E, size: 0x8, addend: 0x0, symName: __ZNKSt3__117__compressed_pairImNS_9allocatorImEEE5firstB8ne180100Ev, symObjAddr: 0x705C, symBinAddr: 0x100009FF4, symSize: 0x24 }
  - { offset: 0x11A83, size: 0x8, addend: 0x0, symName: __ZNKSt3__16vectorIbNS_9allocatorIbEEE13get_allocatorB8ne180100Ev, symObjAddr: 0x7080, symBinAddr: 0x10000A018, symSize: 0x30 }
  - { offset: 0x11AA8, size: 0x8, addend: 0x0, symName: __ZNSt3__16vectorIbNS_9allocatorIbEEEC1B8ne180100ERKS2_, symObjAddr: 0x70B0, symBinAddr: 0x10000A048, symSize: 0x34 }
  - { offset: 0x11AE2, size: 0x8, addend: 0x0, symName: __ZNSt3__16vectorIbNS_9allocatorIbEEE18__construct_at_endINS_14__bit_iteratorIS3_Lb0ELm0EEES6_EEvT_T0_m, symObjAddr: 0x70E4, symBinAddr: 0x10000A07C, symSize: 0x12C }
  - { offset: 0x11B59, size: 0x8, addend: 0x0, symName: __ZNSt3__16vectorIbNS_9allocatorIbEEE5beginB8ne180100Ev, symObjAddr: 0x7210, symBinAddr: 0x10000A1A8, symSize: 0x30 }
  - { offset: 0x11B7E, size: 0x8, addend: 0x0, symName: __ZNSt3__16vectorIbNS_9allocatorIbEEE3endB8ne180100Ev, symObjAddr: 0x7240, symBinAddr: 0x10000A1D8, symSize: 0x30 }
  - { offset: 0x11BA3, size: 0x8, addend: 0x0, symName: __ZNSt3__16vectorIbNS_9allocatorIbEEE4swapERS3_, symObjAddr: 0x7270, symBinAddr: 0x10000A208, symSize: 0x84 }
  - { offset: 0x11BD8, size: 0x8, addend: 0x0, symName: __ZNSt3__19allocatorIbEC1B8ne180100ImEERKNS0_IT_EE, symObjAddr: 0x72F4, symBinAddr: 0x10000A28C, symSize: 0x34 }
  - { offset: 0x11C13, size: 0x8, addend: 0x0, symName: __ZNSt3__19allocatorIbEC2B8ne180100ImEERKNS0_IT_EE, symObjAddr: 0x7328, symBinAddr: 0x10000A2C0, symSize: 0x30 }
  - { offset: 0x11C4F, size: 0x8, addend: 0x0, symName: __ZNSt3__116__non_trivial_ifILb1ENS_9allocatorIbEEEC2B8ne180100Ev, symObjAddr: 0x7358, symBinAddr: 0x10000A2F0, symSize: 0x14 }
  - { offset: 0x11C78, size: 0x8, addend: 0x0, symName: __ZNSt3__16vectorIbNS_9allocatorIbEEEC2B8ne180100ERKS2_, symObjAddr: 0x736C, symBinAddr: 0x10000A304, symSize: 0x6C }
  - { offset: 0x11CB6, size: 0x8, addend: 0x0, symName: __ZNSt3__19allocatorImEC1B8ne180100IbEERKNS0_IT_EE, symObjAddr: 0x73D8, symBinAddr: 0x10000A370, symSize: 0x34 }
  - { offset: 0x11CF1, size: 0x8, addend: 0x0, symName: __ZNSt3__19allocatorImEC2B8ne180100IbEERKNS0_IT_EE, symObjAddr: 0x740C, symBinAddr: 0x10000A3A4, symSize: 0x30 }
  - { offset: 0x11D46, size: 0x8, addend: 0x0, symName: __ZNKSt3__111__copy_loopINS_17_ClassicAlgPolicyEEclB8ne180100INS_14__bit_iteratorINS_6vectorIbNS_9allocatorIbEEEELb0ELm0EEES9_S9_EENS_4pairIT_T1_EESB_T0_SC_, symObjAddr: 0x7734, symBinAddr: 0x10000A6CC, symSize: 0xB8 }
  - { offset: 0x11DB3, size: 0x8, addend: 0x0, symName: __ZNSt3__115__bit_referenceINS_6vectorIbNS_9allocatorIbEEEELb1EEaSB8ne180100ERKS5_, symObjAddr: 0x78CC, symBinAddr: 0x10000A864, symSize: 0x40 }
  - { offset: 0x11DE5, size: 0x8, addend: 0x0, symName: __ZNSt3__14pairINS_14__bit_iteratorINS_6vectorIbNS_9allocatorIbEEEELb0ELm0EEES6_EC1B8ne180100IS6_S6_Li0EEEOT_OT0_, symObjAddr: 0x7970, symBinAddr: 0x10000A908, symSize: 0x3C }
  - { offset: 0x11E41, size: 0x8, addend: 0x0, symName: __ZNSt3__14pairINS_14__bit_iteratorINS_6vectorIbNS_9allocatorIbEEEELb0ELm0EEES6_EC2B8ne180100IS6_S6_Li0EEEOT_OT0_, symObjAddr: 0x79AC, symBinAddr: 0x10000A944, symSize: 0x48 }
  - { offset: 0x11E9E, size: 0x8, addend: 0x0, symName: __ZNSt3__16vectorIbNS_9allocatorIbEEE10__align_itB8ne180100Em, symObjAddr: 0x7A80, symBinAddr: 0x10000AA18, symSize: 0x1C }
  - { offset: 0x11EC2, size: 0x8, addend: 0x0, symName: __ZNSt3__111char_traitsIcE6lengthB8ne180100EPKc, symObjAddr: 0x7C88, symBinAddr: 0x10000AC20, symSize: 0x34 }
  - { offset: 0x11F03, size: 0x8, addend: 0x0, symName: __ZNKSt3__113basic_ostreamIcNS_11char_traitsIcEEE6sentrycvbB8ne180100Ev, symObjAddr: 0x7CBC, symBinAddr: 0x10000AC54, symSize: 0x1C }
  - { offset: 0x11F27, size: 0x8, addend: 0x0, symName: __ZNSt3__119ostreambuf_iteratorIcNS_11char_traitsIcEEEC1B8ne180100ERNS_13basic_ostreamIcS2_EE, symObjAddr: 0x7F18, symBinAddr: 0x10000AEB0, symSize: 0x34 }
  - { offset: 0x11F5E, size: 0x8, addend: 0x0, symName: __ZNKSt3__18ios_base5flagsB8ne180100Ev, symObjAddr: 0x7F4C, symBinAddr: 0x10000AEE4, symSize: 0x18 }
  - { offset: 0x11F85, size: 0x8, addend: 0x0, symName: __ZNKSt3__19basic_iosIcNS_11char_traitsIcEEE4fillB8ne180100Ev, symObjAddr: 0x7F64, symBinAddr: 0x10000AEFC, symSize: 0x64 }
  - { offset: 0x11FAC, size: 0x8, addend: 0x0, symName: __ZNKSt3__119ostreambuf_iteratorIcNS_11char_traitsIcEEE6failedB8ne180100Ev, symObjAddr: 0x7FC8, symBinAddr: 0x10000AF60, symSize: 0x24 }
  - { offset: 0x11FD1, size: 0x8, addend: 0x0, symName: __ZNSt3__19basic_iosIcNS_11char_traitsIcEEE8setstateB8ne180100Ej, symObjAddr: 0x7FEC, symBinAddr: 0x10000AF84, symSize: 0x2C }
  - { offset: 0x12005, size: 0x8, addend: 0x0, symName: __ZNKSt3__18ios_base5widthB8ne180100Ev, symObjAddr: 0x8018, symBinAddr: 0x10000AFB0, symSize: 0x18 }
  - { offset: 0x1202C, size: 0x8, addend: 0x0, symName: __ZNSt3__115basic_streambufIcNS_11char_traitsIcEEE5sputnB8ne180100EPKcl, symObjAddr: 0x8030, symBinAddr: 0x10000AFC8, symSize: 0x3C }
  - { offset: 0x1206C, size: 0x8, addend: 0x0, symName: __ZNSt3__112basic_stringIcNS_11char_traitsIcEENS_9allocatorIcEEEC1B8ne180100Emc, symObjAddr: 0x806C, symBinAddr: 0x10000B004, symSize: 0x3C }
  - { offset: 0x120B3, size: 0x8, addend: 0x0, symName: __ZNKSt3__112basic_stringIcNS_11char_traitsIcEENS_9allocatorIcEEE4dataB8ne180100Ev, symObjAddr: 0x80A8, symBinAddr: 0x10000B040, symSize: 0x28 }
  - { offset: 0x120D8, size: 0x8, addend: 0x0, symName: __ZNSt3__18ios_base5widthB8ne180100El, symObjAddr: 0x80D0, symBinAddr: 0x10000B068, symSize: 0x2C }
  - { offset: 0x1211C, size: 0x8, addend: 0x0, symName: __ZNSt3__112basic_stringIcNS_11char_traitsIcEENS_9allocatorIcEEEC2B8ne180100Emc, symObjAddr: 0x80FC, symBinAddr: 0x10000B094, symSize: 0x4C }
  - { offset: 0x12162, size: 0x8, addend: 0x0, symName: __ZNSt3__117__compressed_pairINS_12basic_stringIcNS_11char_traitsIcEENS_9allocatorIcEEE5__repES5_EC1B8ne180100INS_18__default_init_tagESA_EEOT_OT0_, symObjAddr: 0x8148, symBinAddr: 0x10000B0E0, symSize: 0x3C }
  - { offset: 0x121B8, size: 0x8, addend: 0x0, symName: __ZNSt3__117__compressed_pairINS_12basic_stringIcNS_11char_traitsIcEENS_9allocatorIcEEE5__repES5_EC2B8ne180100INS_18__default_init_tagESA_EEOT_OT0_, symObjAddr: 0x8184, symBinAddr: 0x10000B11C, symSize: 0x3C }
  - { offset: 0x1220F, size: 0x8, addend: 0x0, symName: __ZNSt3__122__compressed_pair_elemINS_12basic_stringIcNS_11char_traitsIcEENS_9allocatorIcEEE5__repELi0ELb0EEC2B8ne180100ENS_18__default_init_tagE, symObjAddr: 0x81C0, symBinAddr: 0x10000B158, symSize: 0x14 }
  - { offset: 0x12241, size: 0x8, addend: 0x0, symName: __ZNSt3__122__compressed_pair_elemINS_9allocatorIcEELi1ELb1EEC2B8ne180100ENS_18__default_init_tagE, symObjAddr: 0x81D4, symBinAddr: 0x10000B16C, symSize: 0x2C }
  - { offset: 0x12273, size: 0x8, addend: 0x0, symName: __ZNSt3__19allocatorIcEC2B8ne180100Ev, symObjAddr: 0x8200, symBinAddr: 0x10000B198, symSize: 0x2C }
  - { offset: 0x1229C, size: 0x8, addend: 0x0, symName: __ZNSt3__116__non_trivial_ifILb1ENS_9allocatorIcEEEC2B8ne180100Ev, symObjAddr: 0x822C, symBinAddr: 0x10000B1C4, symSize: 0x14 }
  - { offset: 0x122C5, size: 0x8, addend: 0x0, symName: __ZNKSt3__112basic_stringIcNS_11char_traitsIcEENS_9allocatorIcEEE13__get_pointerB8ne180100Ev, symObjAddr: 0x8254, symBinAddr: 0x10000B1EC, symSize: 0x54 }
  - { offset: 0x122EA, size: 0x8, addend: 0x0, symName: __ZNKSt3__112basic_stringIcNS_11char_traitsIcEENS_9allocatorIcEEE9__is_longB8ne180100Ev, symObjAddr: 0x82A8, symBinAddr: 0x10000B240, symSize: 0x38 }
  - { offset: 0x1230F, size: 0x8, addend: 0x0, symName: __ZNKSt3__112basic_stringIcNS_11char_traitsIcEENS_9allocatorIcEEE18__get_long_pointerB8ne180100Ev, symObjAddr: 0x82E0, symBinAddr: 0x10000B278, symSize: 0x28 }
  - { offset: 0x12334, size: 0x8, addend: 0x0, symName: __ZNKSt3__112basic_stringIcNS_11char_traitsIcEENS_9allocatorIcEEE19__get_short_pointerB8ne180100Ev, symObjAddr: 0x8308, symBinAddr: 0x10000B2A0, symSize: 0x28 }
  - { offset: 0x12359, size: 0x8, addend: 0x0, symName: __ZNKSt3__117__compressed_pairINS_12basic_stringIcNS_11char_traitsIcEENS_9allocatorIcEEE5__repES5_E5firstB8ne180100Ev, symObjAddr: 0x8330, symBinAddr: 0x10000B2C8, symSize: 0x24 }
  - { offset: 0x1237E, size: 0x8, addend: 0x0, symName: __ZNKSt3__122__compressed_pair_elemINS_12basic_stringIcNS_11char_traitsIcEENS_9allocatorIcEEE5__repELi0ELb0EE5__getB8ne180100Ev, symObjAddr: 0x8354, symBinAddr: 0x10000B2EC, symSize: 0x14 }
  - { offset: 0x123A3, size: 0x8, addend: 0x0, symName: __ZNSt3__114pointer_traitsIPKcE10pointer_toB8ne180100ERS1_, symObjAddr: 0x8368, symBinAddr: 0x10000B300, symSize: 0x14 }
  - { offset: 0x123C5, size: 0x8, addend: 0x0, symName: __ZNSt3__119ostreambuf_iteratorIcNS_11char_traitsIcEEEC2B8ne180100ERNS_13basic_ostreamIcS2_EE, symObjAddr: 0x837C, symBinAddr: 0x10000B314, symSize: 0x54 }
  - { offset: 0x123FC, size: 0x8, addend: 0x0, symName: __ZNKSt3__19basic_iosIcNS_11char_traitsIcEEE5rdbufB8ne180100Ev, symObjAddr: 0x83D0, symBinAddr: 0x10000B368, symSize: 0x24 }
  - { offset: 0x12423, size: 0x8, addend: 0x0, symName: __ZNKSt3__18ios_base5rdbufB8ne180100Ev, symObjAddr: 0x83F4, symBinAddr: 0x10000B38C, symSize: 0x18 }
  - { offset: 0x12448, size: 0x8, addend: 0x0, symName: __ZNSt3__111char_traitsIcE11eq_int_typeB8ne180100Eii, symObjAddr: 0x840C, symBinAddr: 0x10000B3A4, symSize: 0x28 }
  - { offset: 0x1247B, size: 0x8, addend: 0x0, symName: __ZNSt3__111char_traitsIcE3eofB8ne180100Ev, symObjAddr: 0x8434, symBinAddr: 0x10000B3CC, symSize: 0x8 }
  - { offset: 0x1248F, size: 0x8, addend: 0x0, symName: __ZNKSt3__19basic_iosIcNS_11char_traitsIcEEE5widenB8ne180100Ec, symObjAddr: 0x843C, symBinAddr: 0x10000B3D4, symSize: 0x84 }
  - { offset: 0x12502, size: 0x8, addend: 0x0, symName: __ZNKSt3__15ctypeIcE5widenB8ne180100Ec, symObjAddr: 0x84EC, symBinAddr: 0x10000B484, symSize: 0x38 }
  - { offset: 0x12536, size: 0x8, addend: 0x0, symName: __ZNSt3__18ios_base8setstateB8ne180100Ej, symObjAddr: 0x8524, symBinAddr: 0x10000B4BC, symSize: 0x34 }
...
